Archive member included to satisfy reference by file (symbol)

OpenJADE\out\preamp1\x86\lib\Baf\Baf.lib(BAF.o)
                              OpenJADE\out\preamp1\x86\obj\app\Baf\Baf\OJSP.o (BAF_resource)
OpenJADE\out\preamp1\x86\lib\Baf\Baf.lib(Error.o)
                              OpenJADE\out\preamp1\x86\lib\Baf\Baf.lib(BAF.o) (Error_print)
OpenJADE\out\preamp1\x86\lib\Baf\Baf.lib(Framework_Builder.o)
                              OpenJADE\out\preamp1\x86\lib\Baf\Baf.lib(BAF.o) (Framework_Builder_init)
OpenJADE\out\preamp1\x86\lib\Baf\Baf.lib(Heap.o)
                              OpenJADE\out\preamp1\x86\lib\Baf\Baf.lib(BAF.o) (Heap_init)
OpenJADE\out\preamp1\x86\lib\Baf\Baf.lib(JFramework.o)
                              OpenJADE\out\preamp1\x86\lib\Baf\Baf.lib(BAF.o) (JFramework_thread_exec)
OpenJADE\out\preamp1\x86\lib\Baf\Baf.lib(JModule_Context.o)
                              OpenJADE\out\preamp1\x86\lib\Baf\Baf.lib(Framework_Builder.o) (JModule_Context_create)
OpenJADE\out\preamp1\x86\lib\Baf\Baf.lib(Logger.o)
                              OpenJADE\out\preamp1\x86\lib\Baf\Baf.lib(JFramework.o) (Logger_print)
OpenJADE\out\preamp1\x86\lib\Baf\Baf.lib(Module.o)
                              OpenJADE\out\preamp1\x86\lib\Baf\Baf.lib(Framework_Builder.o) (Module_get_process)
OpenJADE\out\preamp1\x86\lib\Baf\Baf.lib(Port.o)
                              OpenJADE\out\preamp1\x86\lib\Baf\Baf.lib(Framework_Builder.o) (Port_block_size)
OpenJADE\out\preamp1\x86\lib\Baf\Baf.lib(Ports.o)
                              OpenJADE\out\preamp1\x86\lib\Baf\Baf.lib(Framework_Builder.o) (Ports_compare_merge)
OpenJADE\out\preamp1\x86\lib\Baf\Baf.lib(Process.o)
                              OpenJADE\out\preamp1\x86\lib\Baf\Baf.lib(JFramework.o) (Process_exec)
OpenJADE\out\preamp1\x86\lib\Baf\Baf.lib(Process_Context.o)
                              OpenJADE\out\preamp1\x86\lib\Baf\Baf.lib(Framework_Builder.o) (Process_Context_get_port_in)
OpenJADE\out\preamp1\x86\lib\Baf\Baf.lib(Audio_Graph.o)
                              OpenJADE\out\preamp1\x86\lib\Baf\Baf.lib(BAF.o) (pBAF_obj)
OpenJADE\out\preamp1\x86\lib\Baf\Baf.lib(BasicAudio_Target.o)
                              OpenJADE\out\preamp1\x86\lib\Baf\Baf.lib(Audio_Graph.o) (BasicAudio_Target_step)
OpenJADE\out\preamp1\x86\lib\Baf\Baf.lib(BasicAudio_Target_BasicAudio0_TOP.o)
                              OpenJADE\out\preamp1\x86\lib\Baf\Baf.lib(BasicAudio_Target.o) (BasicAudio_Target_BasicAudio0)
OpenJADE\out\preamp1\x86\lib\Baf\Baf.lib(BasicAudio_Target_data.o)
                              OpenJADE\out\preamp1\x86\lib\Baf\Baf.lib(BasicAudio_Target.o) (BasicAudio_Target_ConstB)
OpenJADE\out\preamp1\x86\lib\Baf\Baf.lib(BasicAudio_Target_StructStaticInit.o)
                              OpenJADE\out\preamp1\x86\lib\Baf\Baf.lib(BasicAudio_Target.o) (BasicAudio_TargetBasicAudioBalanceSetRtcOut)
OpenJADE\out\preamp1\x86\lib\Baf\Baf.lib(BasicAudio_Target_TalariaAPI.o)
                              OpenJADE\out\preamp1\x86\lib\Baf\Baf.lib(Audio_Graph.o) (BasicAudio_Target_HandleAsdIdRequest)
OpenJADE\out\preamp1\x86\lib\Baf\Baf.lib(BasicAudio_Target_TOP_Access.o)
                              OpenJADE\out\preamp1\x86\lib\Baf\Baf.lib(BasicAudio_Target_TalariaAPI.o) (BasicAudio_Target_HandleTopRequest)
OpenJADE\out\preamp1\x86\lib\Baf\Baf.lib(BasicAudio_Target_RTC_NTF.o)
                              OpenJADE\out\preamp1\x86\lib\Baf\Baf.lib(BasicAudio_Target_TalariaAPI.o) (BasicAudio_Target_ServiceRtcNotifications)
OpenJADE\out\preamp1\x86\lib\Baf\Baf.lib(BasicAudio_Target_RTC_REQ_RSP.o)
                              OpenJADE\out\preamp1\x86\lib\Baf\Baf.lib(BasicAudio_Target_TalariaAPI.o) (BasicAudio_Target_HandleRtcRequest)
OpenJADE\out\preamp1\x86\lib\Baf\Baf.lib(BasicAudio_Target_SCH_API.o)
                              OpenJADE\out\preamp1\x86\lib\Baf\Baf.lib(BasicAudio_Target_RTC_REQ_RSP.o) (BasicAudio_Target_UseDispatchTable)
OpenJADE\out\preamp1\x86\lib\Platform\Baf\SIL.lib(oj_platform.o)
                              OpenJADE\out\preamp1\x86\obj\app\Baf\Integration_Example.o (platform_register_framework_init)
C:/MinGW64/mingw64-6.3.0/bin/../lib/gcc/x86_64-w64-mingw32/6.3.0/../../../../x86_64-w64-mingw32/lib/../lib32/libmingw32.a(lib32_libmingw32_a-atonexit.o)
                              C:/MinGW64/mingw64-6.3.0/bin/../lib/gcc/x86_64-w64-mingw32/6.3.0/32/crtbegin.o (atexit)
C:/MinGW64/mingw64-6.3.0/bin/../lib/gcc/x86_64-w64-mingw32/6.3.0/../../../../x86_64-w64-mingw32/lib/../lib32/libmingw32.a(lib32_libmingw32_a-gccmain.o)
                              C:/MinGW64/mingw64-6.3.0/bin/../lib/gcc/x86_64-w64-mingw32/6.3.0/../../../../x86_64-w64-mingw32/lib/../lib32/crt2.o (__main)
C:/MinGW64/mingw64-6.3.0/bin/../lib/gcc/x86_64-w64-mingw32/6.3.0/../../../../x86_64-w64-mingw32/lib/../lib32/libmingw32.a(lib32_libmingw32_a-natstart.o)
                              C:/MinGW64/mingw64-6.3.0/bin/../lib/gcc/x86_64-w64-mingw32/6.3.0/../../../../x86_64-w64-mingw32/lib/../lib32/crt2.o (__native_startup_lock)
C:/MinGW64/mingw64-6.3.0/bin/../lib/gcc/x86_64-w64-mingw32/6.3.0/../../../../x86_64-w64-mingw32/lib/../lib32/libmingw32.a(lib32_libmingw32_a-wildcard.o)
                              C:/MinGW64/mingw64-6.3.0/bin/../lib/gcc/x86_64-w64-mingw32/6.3.0/../../../../x86_64-w64-mingw32/lib/../lib32/crt2.o (_dowildcard)
C:/MinGW64/mingw64-6.3.0/bin/../lib/gcc/x86_64-w64-mingw32/6.3.0/../../../../x86_64-w64-mingw32/lib/../lib32/libmingw32.a(lib32_libmingw32_a-charmax.o)
                              C:/MinGW64/mingw64-6.3.0/bin/../lib/gcc/x86_64-w64-mingw32/6.3.0/../../../../x86_64-w64-mingw32/lib/../lib32/crt2.o (mingw_initcharmax)
C:/MinGW64/mingw64-6.3.0/bin/../lib/gcc/x86_64-w64-mingw32/6.3.0/../../../../x86_64-w64-mingw32/lib/../lib32/libmingw32.a(lib32_libmingw32_a-dllargv.o)
                              C:/MinGW64/mingw64-6.3.0/bin/../lib/gcc/x86_64-w64-mingw32/6.3.0/../../../../x86_64-w64-mingw32/lib/../lib32/crt2.o (_setargv)
C:/MinGW64/mingw64-6.3.0/bin/../lib/gcc/x86_64-w64-mingw32/6.3.0/../../../../x86_64-w64-mingw32/lib/../lib32/libmingw32.a(lib32_libmingw32_a-gs_support.o)
                              C:/MinGW64/mingw64-6.3.0/bin/../lib/gcc/x86_64-w64-mingw32/6.3.0/../../../../x86_64-w64-mingw32/lib/../lib32/crt2.o (__security_init_cookie)
C:/MinGW64/mingw64-6.3.0/bin/../lib/gcc/x86_64-w64-mingw32/6.3.0/../../../../x86_64-w64-mingw32/lib/../lib32/libmingw32.a(lib32_libmingw32_a-_newmode.o)
                              C:/MinGW64/mingw64-6.3.0/bin/../lib/gcc/x86_64-w64-mingw32/6.3.0/../../../../x86_64-w64-mingw32/lib/../lib32/crt2.o (_newmode)
C:/MinGW64/mingw64-6.3.0/bin/../lib/gcc/x86_64-w64-mingw32/6.3.0/../../../../x86_64-w64-mingw32/lib/../lib32/libmingw32.a(lib32_libmingw32_a-tlssup.o)
                              C:/MinGW64/mingw64-6.3.0/bin/../lib/gcc/x86_64-w64-mingw32/6.3.0/../../../../x86_64-w64-mingw32/lib/../lib32/crt2.o (mingw_initltssuo_force)
C:/MinGW64/mingw64-6.3.0/bin/../lib/gcc/x86_64-w64-mingw32/6.3.0/../../../../x86_64-w64-mingw32/lib/../lib32/libmingw32.a(lib32_libmingw32_a-cinitexe.o)
                              C:/MinGW64/mingw64-6.3.0/bin/../lib/gcc/x86_64-w64-mingw32/6.3.0/../../../../x86_64-w64-mingw32/lib/../lib32/crt2.o (__xc_z)
C:/MinGW64/mingw64-6.3.0/bin/../lib/gcc/x86_64-w64-mingw32/6.3.0/../../../../x86_64-w64-mingw32/lib/../lib32/libmingw32.a(lib32_libmingw32_a-merr.o)
                              C:/MinGW64/mingw64-6.3.0/bin/../lib/gcc/x86_64-w64-mingw32/6.3.0/../../../../x86_64-w64-mingw32/lib/../lib32/crt2.o (__mingw_setusermatherr)
C:/MinGW64/mingw64-6.3.0/bin/../lib/gcc/x86_64-w64-mingw32/6.3.0/../../../../x86_64-w64-mingw32/lib/../lib32/libmingw32.a(lib32_libmingw32_a-CRT_fp10.o)
                              C:/MinGW64/mingw64-6.3.0/bin/../lib/gcc/x86_64-w64-mingw32/6.3.0/../../../../x86_64-w64-mingw32/lib/../lib32/crt2.o (_fpreset)
C:/MinGW64/mingw64-6.3.0/bin/../lib/gcc/x86_64-w64-mingw32/6.3.0/../../../../x86_64-w64-mingw32/lib/../lib32/libmingw32.a(lib32_libmingw32_a-mingw_helpers.o)
                              C:/MinGW64/mingw64-6.3.0/bin/../lib/gcc/x86_64-w64-mingw32/6.3.0/../../../../x86_64-w64-mingw32/lib/../lib32/libmingw32.a(lib32_libmingw32_a-atonexit.o) (_decode_pointer)
C:/MinGW64/mingw64-6.3.0/bin/../lib/gcc/x86_64-w64-mingw32/6.3.0/../../../../x86_64-w64-mingw32/lib/../lib32/libmingw32.a(lib32_libmingw32_a-pseudo-reloc.o)
                              C:/MinGW64/mingw64-6.3.0/bin/../lib/gcc/x86_64-w64-mingw32/6.3.0/../../../../x86_64-w64-mingw32/lib/../lib32/crt2.o (_pei386_runtime_relocator)
C:/MinGW64/mingw64-6.3.0/bin/../lib/gcc/x86_64-w64-mingw32/6.3.0/../../../../x86_64-w64-mingw32/lib/../lib32/libmingw32.a(lib32_libmingw32_a-xtxtmode.o)
                              C:/MinGW64/mingw64-6.3.0/bin/../lib/gcc/x86_64-w64-mingw32/6.3.0/../../../../x86_64-w64-mingw32/lib/../lib32/crt2.o (_fmode)
C:/MinGW64/mingw64-6.3.0/bin/../lib/gcc/x86_64-w64-mingw32/6.3.0/../../../../x86_64-w64-mingw32/lib/../lib32/libmingw32.a(lib32_libmingw32_a-crt_handler.o)
                              C:/MinGW64/mingw64-6.3.0/bin/../lib/gcc/x86_64-w64-mingw32/6.3.0/../../../../x86_64-w64-mingw32/lib/../lib32/crt2.o (_gnu_exception_handler@4)
C:/MinGW64/mingw64-6.3.0/bin/../lib/gcc/x86_64-w64-mingw32/6.3.0/../../../../x86_64-w64-mingw32/lib/../lib32/libmingw32.a(lib32_libmingw32_a-tlsthrd.o)
                              C:/MinGW64/mingw64-6.3.0/bin/../lib/gcc/x86_64-w64-mingw32/6.3.0/../../../../x86_64-w64-mingw32/lib/../lib32/libmingw32.a(lib32_libmingw32_a-tlssup.o) (__mingw_TLScallback)
C:/MinGW64/mingw64-6.3.0/bin/../lib/gcc/x86_64-w64-mingw32/6.3.0/../../../../x86_64-w64-mingw32/lib/../lib32/libmingw32.a(lib32_libmingw32_a-tlsmcrt.o)
                              C:/MinGW64/mingw64-6.3.0/bin/../lib/gcc/x86_64-w64-mingw32/6.3.0/../../../../x86_64-w64-mingw32/lib/../lib32/libmingw32.a(lib32_libmingw32_a-tlssup.o) (_CRT_MT)
C:/MinGW64/mingw64-6.3.0/bin/../lib/gcc/x86_64-w64-mingw32/6.3.0/../../../../x86_64-w64-mingw32/lib/../lib32/libmingw32.a(lib32_libmingw32_a-pseudo-reloc-list.o)
                              C:/MinGW64/mingw64-6.3.0/bin/../lib/gcc/x86_64-w64-mingw32/6.3.0/../../../../x86_64-w64-mingw32/lib/../lib32/libmingw32.a(lib32_libmingw32_a-pseudo-reloc.o) (__RUNTIME_PSEUDO_RELOC_LIST__)
C:/MinGW64/mingw64-6.3.0/bin/../lib/gcc/x86_64-w64-mingw32/6.3.0/../../../../x86_64-w64-mingw32/lib/../lib32/libmingw32.a(lib32_libmingw32_a-pesect.o)
                              C:/MinGW64/mingw64-6.3.0/bin/../lib/gcc/x86_64-w64-mingw32/6.3.0/../../../../x86_64-w64-mingw32/lib/../lib32/libmingw32.a(lib32_libmingw32_a-pseudo-reloc.o) (__mingw_GetSectionForAddress)
C:/MinGW64/mingw64-6.3.0/bin/../lib/gcc/x86_64-w64-mingw32/6.3.0/32/libgcc.a(_chkstk_ms.o)
                              C:/MinGW64/mingw64-6.3.0/bin/../lib/gcc/x86_64-w64-mingw32/6.3.0/../../../../x86_64-w64-mingw32/lib/../lib32/crt2.o (__chkstk_ms)
C:/MinGW64/mingw64-6.3.0/bin/../lib/gcc/x86_64-w64-mingw32/6.3.0/32/libgcc.a(_ctors.o)
                              C:/MinGW64/mingw64-6.3.0/bin/../lib/gcc/x86_64-w64-mingw32/6.3.0/../../../../x86_64-w64-mingw32/lib/../lib32/libmingw32.a(lib32_libmingw32_a-gccmain.o) (__DTOR_LIST__)
C:/MinGW64/mingw64-6.3.0/bin/../lib/gcc/x86_64-w64-mingw32/6.3.0/../../../../x86_64-w64-mingw32/lib/../lib32/libmingwex.a(lib32_libmingwex_a-ceilf.o)
                              OpenJADE\out\preamp1\x86\lib\Baf\Baf.lib(BasicAudio_Target.o) (ceilf)
C:/MinGW64/mingw64-6.3.0/bin/../lib/gcc/x86_64-w64-mingw32/6.3.0/../../../../x86_64-w64-mingw32/lib/../lib32/libmingwex.a(lib32_libmingwex_a-expf.o)
                              OpenJADE\out\preamp1\x86\lib\Baf\Baf.lib(BasicAudio_Target.o) (expf)
C:/MinGW64/mingw64-6.3.0/bin/../lib/gcc/x86_64-w64-mingw32/6.3.0/../../../../x86_64-w64-mingw32/lib/../lib32/libmingwex.a(lib32_libmingwex_a-fmaxf.o)
                              OpenJADE\out\preamp1\x86\lib\Baf\Baf.lib(BasicAudio_Target.o) (fmaxf)
C:/MinGW64/mingw64-6.3.0/bin/../lib/gcc/x86_64-w64-mingw32/6.3.0/../../../../x86_64-w64-mingw32/lib/../lib32/libmingwex.a(lib32_libmingwex_a-fminf.o)
                              OpenJADE\out\preamp1\x86\lib\Baf\Baf.lib(BasicAudio_Target.o) (fminf)
C:/MinGW64/mingw64-6.3.0/bin/../lib/gcc/x86_64-w64-mingw32/6.3.0/../../../../x86_64-w64-mingw32/lib/../lib32/libmingwex.a(lib32_libmingwex_a-log10f.o)
                              OpenJADE\out\preamp1\x86\lib\Baf\Baf.lib(BasicAudio_Target.o) (log10f)
C:/MinGW64/mingw64-6.3.0/bin/../lib/gcc/x86_64-w64-mingw32/6.3.0/../../../../x86_64-w64-mingw32/lib/../lib32/libmingwex.a(lib32_libmingwex_a-logf.o)
                              OpenJADE\out\preamp1\x86\lib\Baf\Baf.lib(BasicAudio_Target.o) (logf)
C:/MinGW64/mingw64-6.3.0/bin/../lib/gcc/x86_64-w64-mingw32/6.3.0/../../../../x86_64-w64-mingw32/lib/../lib32/libmingwex.a(lib32_libmingwex_a-powf.o)
                              OpenJADE\out\preamp1\x86\lib\Baf\Baf.lib(BasicAudio_Target.o) (powf)
C:/MinGW64/mingw64-6.3.0/bin/../lib/gcc/x86_64-w64-mingw32/6.3.0/../../../../x86_64-w64-mingw32/lib/../lib32/libmingwex.a(lib32_libmingwex_a-roundf.o)
                              OpenJADE\out\preamp1\x86\lib\Baf\Baf.lib(BasicAudio_Target.o) (roundf)
C:/MinGW64/mingw64-6.3.0/bin/../lib/gcc/x86_64-w64-mingw32/6.3.0/../../../../x86_64-w64-mingw32/lib/../lib32/libmingwex.a(lib32_libmingwex_a-sqrtf.o)
                              OpenJADE\out\preamp1\x86\lib\Baf\Baf.lib(BasicAudio_Target.o) (sqrtf)
C:/MinGW64/mingw64-6.3.0/bin/../lib/gcc/x86_64-w64-mingw32/6.3.0/../../../../x86_64-w64-mingw32/lib/../lib32/libmingwex.a(lib32_libmingwex_a-mingw_matherr.o)
                              C:/MinGW64/mingw64-6.3.0/bin/../lib/gcc/x86_64-w64-mingw32/6.3.0/../../../../x86_64-w64-mingw32/lib/../lib32/crt2.o (_MINGW_INSTALL_DEBUG_MATHERR)
C:/MinGW64/mingw64-6.3.0/bin/../lib/gcc/x86_64-w64-mingw32/6.3.0/../../../../x86_64-w64-mingw32/lib/../lib32/libmingwex.a(lib32_libmingwex_a-exp.o)
                              C:/MinGW64/mingw64-6.3.0/bin/../lib/gcc/x86_64-w64-mingw32/6.3.0/../../../../x86_64-w64-mingw32/lib/../lib32/libmingwex.a(lib32_libmingwex_a-expf.o) (exp)
C:/MinGW64/mingw64-6.3.0/bin/../lib/gcc/x86_64-w64-mingw32/6.3.0/../../../../x86_64-w64-mingw32/lib/../lib32/libmingwex.a(lib32_libmingwex_a-log.o)
                              C:/MinGW64/mingw64-6.3.0/bin/../lib/gcc/x86_64-w64-mingw32/6.3.0/../../../../x86_64-w64-mingw32/lib/../lib32/libmingwex.a(lib32_libmingwex_a-logf.o) (log)
C:/MinGW64/mingw64-6.3.0/bin/../lib/gcc/x86_64-w64-mingw32/6.3.0/../../../../x86_64-w64-mingw32/lib/../lib32/libmingwex.a(lib32_libmingwex_a-pow.o)
                              C:/MinGW64/mingw64-6.3.0/bin/../lib/gcc/x86_64-w64-mingw32/6.3.0/../../../../x86_64-w64-mingw32/lib/../lib32/libmingwex.a(lib32_libmingwex_a-powf.o) (pow)
C:/MinGW64/mingw64-6.3.0/bin/../lib/gcc/x86_64-w64-mingw32/6.3.0/../../../../x86_64-w64-mingw32/lib/../lib32/libmingwex.a(lib32_libmingwex_a-powi.o)
                              C:/MinGW64/mingw64-6.3.0/bin/../lib/gcc/x86_64-w64-mingw32/6.3.0/../../../../x86_64-w64-mingw32/lib/../lib32/libmingwex.a(lib32_libmingwex_a-pow.o) (__powi)
C:/MinGW64/mingw64-6.3.0/bin/../lib/gcc/x86_64-w64-mingw32/6.3.0/../../../../x86_64-w64-mingw32/lib/../lib32/libmingwex.a(lib32_libmingwex_a-exp2l.o)
                              C:/MinGW64/mingw64-6.3.0/bin/../lib/gcc/x86_64-w64-mingw32/6.3.0/../../../../x86_64-w64-mingw32/lib/../lib32/libmingwex.a(lib32_libmingwex_a-pow.o) (exp2l)
C:/MinGW64/mingw64-6.3.0/bin/../lib/gcc/x86_64-w64-mingw32/6.3.0/../../../../x86_64-w64-mingw32/lib/../lib32/libmingwex.a(lib32_libmingwex_a-internal_logl.o)
                              C:/MinGW64/mingw64-6.3.0/bin/../lib/gcc/x86_64-w64-mingw32/6.3.0/../../../../x86_64-w64-mingw32/lib/../lib32/libmingwex.a(lib32_libmingwex_a-log.o) (__logl_internal)
C:/MinGW64/mingw64-6.3.0/bin/../lib/gcc/x86_64-w64-mingw32/6.3.0/../../../../x86_64-w64-mingw32/lib/../lib32/libmingwex.a(lib32_libmingwex_a-ldexp.o)
                              C:/MinGW64/mingw64-6.3.0/bin/../lib/gcc/x86_64-w64-mingw32/6.3.0/../../../../x86_64-w64-mingw32/lib/../lib32/libmingwex.a(lib32_libmingwex_a-pow.o) (ldexp)
C:/MinGW64/mingw64-6.3.0/bin/../lib/gcc/x86_64-w64-mingw32/6.3.0/../../../../x86_64-w64-mingw32/lib/../lib32/libmingwex.a(lib32_libmingwex_a-log2l.o)
                              C:/MinGW64/mingw64-6.3.0/bin/../lib/gcc/x86_64-w64-mingw32/6.3.0/../../../../x86_64-w64-mingw32/lib/../lib32/libmingwex.a(lib32_libmingwex_a-pow.o) (log2l)
C:/MinGW64/mingw64-6.3.0/bin/../lib/gcc/x86_64-w64-mingw32/6.3.0/../../../../x86_64-w64-mingw32/lib/../lib32/libmsvcrt.a(dakes01258.o)
                              OpenJADE\out\preamp1\x86\lib\Platform\Baf\SIL.lib(oj_platform.o) (vprintf)
C:/MinGW64/mingw64-6.3.0/bin/../lib/gcc/x86_64-w64-mingw32/6.3.0/../../../../x86_64-w64-mingw32/lib/../lib32/libmsvcrt.a(dakes01254.o)
                              C:/MinGW64/mingw64-6.3.0/bin/../lib/gcc/x86_64-w64-mingw32/6.3.0/../../../../x86_64-w64-mingw32/lib/../lib32/libmingw32.a(lib32_libmingw32_a-pseudo-reloc.o) (vfprintf)
C:/MinGW64/mingw64-6.3.0/bin/../lib/gcc/x86_64-w64-mingw32/6.3.0/../../../../x86_64-w64-mingw32/lib/../lib32/libmsvcrt.a(dakes01221.o)
                              C:/MinGW64/mingw64-6.3.0/bin/../lib/gcc/x86_64-w64-mingw32/6.3.0/../../../../x86_64-w64-mingw32/lib/../lib32/libmingw32.a(lib32_libmingw32_a-pesect.o) (strncmp)
C:/MinGW64/mingw64-6.3.0/bin/../lib/gcc/x86_64-w64-mingw32/6.3.0/../../../../x86_64-w64-mingw32/lib/../lib32/libmsvcrt.a(dakes01218.o)
                              C:/MinGW64/mingw64-6.3.0/bin/../lib/gcc/x86_64-w64-mingw32/6.3.0/../../../../x86_64-w64-mingw32/lib/../lib32/crt2.o (strlen)
C:/MinGW64/mingw64-6.3.0/bin/../lib/gcc/x86_64-w64-mingw32/6.3.0/../../../../x86_64-w64-mingw32/lib/../lib32/libmsvcrt.a(dakes01200.o)
                              C:/MinGW64/mingw64-6.3.0/bin/../lib/gcc/x86_64-w64-mingw32/6.3.0/../../../../x86_64-w64-mingw32/lib/../lib32/libmingw32.a(lib32_libmingw32_a-crt_handler.o) (signal)
C:/MinGW64/mingw64-6.3.0/bin/../lib/gcc/x86_64-w64-mingw32/6.3.0/../../../../x86_64-w64-mingw32/lib/../lib32/libmsvcrt.a(dakes01175.o)
                              OpenJADE\out\preamp1\x86\lib\Baf\Baf.lib(BasicAudio_Target.o) (memset)
C:/MinGW64/mingw64-6.3.0/bin/../lib/gcc/x86_64-w64-mingw32/6.3.0/../../../../x86_64-w64-mingw32/lib/../lib32/libmsvcrt.a(dakes01172.o)
                              C:/MinGW64/mingw64-6.3.0/bin/../lib/gcc/x86_64-w64-mingw32/6.3.0/../../../../x86_64-w64-mingw32/lib/../lib32/crt2.o (memcpy)
C:/MinGW64/mingw64-6.3.0/bin/../lib/gcc/x86_64-w64-mingw32/6.3.0/../../../../x86_64-w64-mingw32/lib/../lib32/libmsvcrt.a(dakes01164.o)
                              C:/MinGW64/mingw64-6.3.0/bin/../lib/gcc/x86_64-w64-mingw32/6.3.0/../../../../x86_64-w64-mingw32/lib/../lib32/crt2.o (malloc)
C:/MinGW64/mingw64-6.3.0/bin/../lib/gcc/x86_64-w64-mingw32/6.3.0/../../../../x86_64-w64-mingw32/lib/../lib32/libmsvcrt.a(dakes01162.o)
                              C:/MinGW64/mingw64-6.3.0/bin/../lib/gcc/x86_64-w64-mingw32/6.3.0/../../../../x86_64-w64-mingw32/lib/../lib32/libmingwex.a(lib32_libmingwex_a-log10f.o) (log10)
C:/MinGW64/mingw64-6.3.0/bin/../lib/gcc/x86_64-w64-mingw32/6.3.0/../../../../x86_64-w64-mingw32/lib/../lib32/libmsvcrt.a(dakes01117.o)
                              OpenJADE\out\preamp1\x86\lib\Platform\Baf\SIL.lib(oj_platform.o) (fwrite)
C:/MinGW64/mingw64-6.3.0/bin/../lib/gcc/x86_64-w64-mingw32/6.3.0/../../../../x86_64-w64-mingw32/lib/../lib32/libmsvcrt.a(dakes01105.o)
                              C:/MinGW64/mingw64-6.3.0/bin/../lib/gcc/x86_64-w64-mingw32/6.3.0/../../../../x86_64-w64-mingw32/lib/../lib32/libmingw32.a(lib32_libmingw32_a-tlsthrd.o) (free)
C:/MinGW64/mingw64-6.3.0/bin/../lib/gcc/x86_64-w64-mingw32/6.3.0/../../../../x86_64-w64-mingw32/lib/../lib32/libmsvcrt.a(dakes01104.o)
                              OpenJADE\out\preamp1\x86\lib\Platform\Baf\SIL.lib(oj_platform.o) (fread)
C:/MinGW64/mingw64-6.3.0/bin/../lib/gcc/x86_64-w64-mingw32/6.3.0/../../../../x86_64-w64-mingw32/lib/../lib32/libmsvcrt.a(dakes01100.o)
                              OpenJADE\out\preamp1\x86\lib\Platform\Baf\SIL.lib(oj_platform.o) (fputc)
C:/MinGW64/mingw64-6.3.0/bin/../lib/gcc/x86_64-w64-mingw32/6.3.0/../../../../x86_64-w64-mingw32/lib/../lib32/libmsvcrt.a(dakes01098.o)
                              OpenJADE\out\preamp1\x86\lib\Platform\Baf\SIL.lib(oj_platform.o) (fprintf)
C:/MinGW64/mingw64-6.3.0/bin/../lib/gcc/x86_64-w64-mingw32/6.3.0/../../../../x86_64-w64-mingw32/lib/../lib32/libmsvcrt.a(dakes01096.o)
                              OpenJADE\out\preamp1\x86\lib\Platform\Baf\SIL.lib(oj_platform.o) (fopen)
C:/MinGW64/mingw64-6.3.0/bin/../lib/gcc/x86_64-w64-mingw32/6.3.0/../../../../x86_64-w64-mingw32/lib/../lib32/libmsvcrt.a(dakes01091.o)
                              OpenJADE\out\preamp1\x86\lib\Platform\Baf\SIL.lib(oj_platform.o) (fgets)
C:/MinGW64/mingw64-6.3.0/bin/../lib/gcc/x86_64-w64-mingw32/6.3.0/../../../../x86_64-w64-mingw32/lib/../lib32/libmsvcrt.a(dakes01086.o)
                              OpenJADE\out\preamp1\x86\lib\Platform\Baf\SIL.lib(oj_platform.o) (feof)
C:/MinGW64/mingw64-6.3.0/bin/../lib/gcc/x86_64-w64-mingw32/6.3.0/../../../../x86_64-w64-mingw32/lib/../lib32/libmsvcrt.a(dakes01085.o)
                              OpenJADE\out\preamp1\x86\lib\Platform\Baf\SIL.lib(oj_platform.o) (fclose)
C:/MinGW64/mingw64-6.3.0/bin/../lib/gcc/x86_64-w64-mingw32/6.3.0/../../../../x86_64-w64-mingw32/lib/../lib32/libmsvcrt.a(dakes01082.o)
                              C:/MinGW64/mingw64-6.3.0/bin/../lib/gcc/x86_64-w64-mingw32/6.3.0/../../../../x86_64-w64-mingw32/lib/../lib32/crt2.o (exit)
C:/MinGW64/mingw64-6.3.0/bin/../lib/gcc/x86_64-w64-mingw32/6.3.0/../../../../x86_64-w64-mingw32/lib/../lib32/libmsvcrt.a(dakes01071.o)
                              C:/MinGW64/mingw64-6.3.0/bin/../lib/gcc/x86_64-w64-mingw32/6.3.0/../../../../x86_64-w64-mingw32/lib/../lib32/libmingw32.a(lib32_libmingw32_a-tlsthrd.o) (calloc)
C:/MinGW64/mingw64-6.3.0/bin/../lib/gcc/x86_64-w64-mingw32/6.3.0/../../../../x86_64-w64-mingw32/lib/../lib32/libmsvcrt.a(dakes01057.o)
                              C:/MinGW64/mingw64-6.3.0/bin/../lib/gcc/x86_64-w64-mingw32/6.3.0/../../../../x86_64-w64-mingw32/lib/../lib32/libmingw32.a(lib32_libmingw32_a-gs_support.o) (abort)
C:/MinGW64/mingw64-6.3.0/bin/../lib/gcc/x86_64-w64-mingw32/6.3.0/../../../../x86_64-w64-mingw32/lib/../lib32/libmsvcrt.a(dakes00844.o)
                              C:/MinGW64/mingw64-6.3.0/bin/../lib/gcc/x86_64-w64-mingw32/6.3.0/../../../../x86_64-w64-mingw32/lib/../lib32/libmingw32.a(lib32_libmingw32_a-atonexit.o) (_unlock)
C:/MinGW64/mingw64-6.3.0/bin/../lib/gcc/x86_64-w64-mingw32/6.3.0/../../../../x86_64-w64-mingw32/lib/../lib32/libmsvcrt.a(dakes00629.o)
                              C:/MinGW64/mingw64-6.3.0/bin/../lib/gcc/x86_64-w64-mingw32/6.3.0/../../../../x86_64-w64-mingw32/lib/../lib32/libmingw32.a(lib32_libmingw32_a-atonexit.o) (_imp___onexit)
C:/MinGW64/mingw64-6.3.0/bin/../lib/gcc/x86_64-w64-mingw32/6.3.0/../../../../x86_64-w64-mingw32/lib/../lib32/libmsvcrt.a(dakes00458.o)
                              C:/MinGW64/mingw64-6.3.0/bin/../lib/gcc/x86_64-w64-mingw32/6.3.0/../../../../x86_64-w64-mingw32/lib/../lib32/libmingw32.a(lib32_libmingw32_a-atonexit.o) (_lock)
C:/MinGW64/mingw64-6.3.0/bin/../lib/gcc/x86_64-w64-mingw32/6.3.0/../../../../x86_64-w64-mingw32/lib/../lib32/libmsvcrt.a(dakes00356.o)
                              OpenJADE\out\preamp1\x86\lib\Platform\Baf\SIL.lib(oj_platform.o) (_imp___iob)
C:/MinGW64/mingw64-6.3.0/bin/../lib/gcc/x86_64-w64-mingw32/6.3.0/../../../../x86_64-w64-mingw32/lib/../lib32/libmsvcrt.a(dakes00352.o)
                              C:/MinGW64/mingw64-6.3.0/bin/../lib/gcc/x86_64-w64-mingw32/6.3.0/../../../../x86_64-w64-mingw32/lib/../lib32/crt2.o (_initterm)
C:/MinGW64/mingw64-6.3.0/bin/../lib/gcc/x86_64-w64-mingw32/6.3.0/../../../../x86_64-w64-mingw32/lib/../lib32/libmsvcrt.a(dakes00275.o)
                              C:/MinGW64/mingw64-6.3.0/bin/../lib/gcc/x86_64-w64-mingw32/6.3.0/../../../../x86_64-w64-mingw32/lib/../lib32/crt2.o (_imp___fmode)
C:/MinGW64/mingw64-6.3.0/bin/../lib/gcc/x86_64-w64-mingw32/6.3.0/../../../../x86_64-w64-mingw32/lib/../lib32/libmsvcrt.a(dakes00222.o)
                              C:/MinGW64/mingw64-6.3.0/bin/../lib/gcc/x86_64-w64-mingw32/6.3.0/../../../../x86_64-w64-mingw32/lib/../lib32/libmingwex.a(lib32_libmingwex_a-sqrtf.o) (_errno)
C:/MinGW64/mingw64-6.3.0/bin/../lib/gcc/x86_64-w64-mingw32/6.3.0/../../../../x86_64-w64-mingw32/lib/../lib32/libmsvcrt.a(dakes00161.o)
                              C:/MinGW64/mingw64-6.3.0/bin/../lib/gcc/x86_64-w64-mingw32/6.3.0/../../../../x86_64-w64-mingw32/lib/../lib32/crt2.o (_cexit)
C:/MinGW64/mingw64-6.3.0/bin/../lib/gcc/x86_64-w64-mingw32/6.3.0/../../../../x86_64-w64-mingw32/lib/../lib32/libmsvcrt.a(dakes00144.o)
                              C:/MinGW64/mingw64-6.3.0/bin/../lib/gcc/x86_64-w64-mingw32/6.3.0/../../../../x86_64-w64-mingw32/lib/../lib32/crt2.o (_amsg_exit)
C:/MinGW64/mingw64-6.3.0/bin/../lib/gcc/x86_64-w64-mingw32/6.3.0/../../../../x86_64-w64-mingw32/lib/../lib32/libmsvcrt.a(dakes00123.o)
                              C:/MinGW64/mingw64-6.3.0/bin/../lib/gcc/x86_64-w64-mingw32/6.3.0/../../../../x86_64-w64-mingw32/lib/../lib32/crt2.o (_imp___acmdln)
C:/MinGW64/mingw64-6.3.0/bin/../lib/gcc/x86_64-w64-mingw32/6.3.0/../../../../x86_64-w64-mingw32/lib/../lib32/libmsvcrt.a(dakes00107.o)
                              C:/MinGW64/mingw64-6.3.0/bin/../lib/gcc/x86_64-w64-mingw32/6.3.0/../../../../x86_64-w64-mingw32/lib/../lib32/libmingw32.a(lib32_libmingw32_a-merr.o) (__setusermatherr)
C:/MinGW64/mingw64-6.3.0/bin/../lib/gcc/x86_64-w64-mingw32/6.3.0/../../../../x86_64-w64-mingw32/lib/../lib32/libmsvcrt.a(dakes00104.o)
                              C:/MinGW64/mingw64-6.3.0/bin/../lib/gcc/x86_64-w64-mingw32/6.3.0/../../../../x86_64-w64-mingw32/lib/../lib32/crt2.o (__set_app_type)
C:/MinGW64/mingw64-6.3.0/bin/../lib/gcc/x86_64-w64-mingw32/6.3.0/../../../../x86_64-w64-mingw32/lib/../lib32/libmsvcrt.a(dakes00068.o)
                              C:/MinGW64/mingw64-6.3.0/bin/../lib/gcc/x86_64-w64-mingw32/6.3.0/../../../../x86_64-w64-mingw32/lib/../lib32/libmingw32.a(lib32_libmingw32_a-charmax.o) (_imp____lconv_init)
C:/MinGW64/mingw64-6.3.0/bin/../lib/gcc/x86_64-w64-mingw32/6.3.0/../../../../x86_64-w64-mingw32/lib/../lib32/libmsvcrt.a(dakes00059.o)
                              C:/MinGW64/mingw64-6.3.0/bin/../lib/gcc/x86_64-w64-mingw32/6.3.0/../../../../x86_64-w64-mingw32/lib/../lib32/crt2.o (_imp____initenv)
C:/MinGW64/mingw64-6.3.0/bin/../lib/gcc/x86_64-w64-mingw32/6.3.0/../../../../x86_64-w64-mingw32/lib/../lib32/libmsvcrt.a(dakes00058.o)
                              C:/MinGW64/mingw64-6.3.0/bin/../lib/gcc/x86_64-w64-mingw32/6.3.0/../../../../x86_64-w64-mingw32/lib/../lib32/crt2.o (__getmainargs)
C:/MinGW64/mingw64-6.3.0/bin/../lib/gcc/x86_64-w64-mingw32/6.3.0/../../../../x86_64-w64-mingw32/lib/../lib32/libmsvcrt.a(dakes00055.o)
                              C:/MinGW64/mingw64-6.3.0/bin/../lib/gcc/x86_64-w64-mingw32/6.3.0/../../../../x86_64-w64-mingw32/lib/../lib32/libmingw32.a(lib32_libmingw32_a-atonexit.o) (__dllonexit)
C:/MinGW64/mingw64-6.3.0/bin/../lib/gcc/x86_64-w64-mingw32/6.3.0/../../../../x86_64-w64-mingw32/lib/../lib32/libmsvcrt.a(lib32_libmsvcrt_a-invalid_parameter_handler.o)
                              C:/MinGW64/mingw64-6.3.0/bin/../lib/gcc/x86_64-w64-mingw32/6.3.0/../../../../x86_64-w64-mingw32/lib/../lib32/crt2.o (_set_invalid_parameter_handler)
C:/MinGW64/mingw64-6.3.0/bin/../lib/gcc/x86_64-w64-mingw32/6.3.0/../../../../x86_64-w64-mingw32/lib/../lib32/libmsvcrt.a(dakeh.o)
                              C:/MinGW64/mingw64-6.3.0/bin/../lib/gcc/x86_64-w64-mingw32/6.3.0/../../../../x86_64-w64-mingw32/lib/../lib32/libmsvcrt.a(dakes01258.o) (_head_lib32_libmsvcrt_a)
C:/MinGW64/mingw64-6.3.0/bin/../lib/gcc/x86_64-w64-mingw32/6.3.0/../../../../x86_64-w64-mingw32/lib/../lib32/libmsvcrt.a(daket.o)
                              C:/MinGW64/mingw64-6.3.0/bin/../lib/gcc/x86_64-w64-mingw32/6.3.0/../../../../x86_64-w64-mingw32/lib/../lib32/libmsvcrt.a(dakeh.o) (_lib32_libmsvcrt_a_iname)
C:/MinGW64/mingw64-6.3.0/bin/../lib/gcc/x86_64-w64-mingw32/6.3.0/../../../../x86_64-w64-mingw32/lib/../lib32/libkernel32.a(dkzds01245.o)
                              C:/MinGW64/mingw64-6.3.0/bin/../lib/gcc/x86_64-w64-mingw32/6.3.0/../../../../x86_64-w64-mingw32/lib/../lib32/libmingw32.a(lib32_libmingw32_a-pseudo-reloc.o) (_imp__VirtualQuery@12)
C:/MinGW64/mingw64-6.3.0/bin/../lib/gcc/x86_64-w64-mingw32/6.3.0/../../../../x86_64-w64-mingw32/lib/../lib32/libkernel32.a(dkzds01242.o)
                              C:/MinGW64/mingw64-6.3.0/bin/../lib/gcc/x86_64-w64-mingw32/6.3.0/../../../../x86_64-w64-mingw32/lib/../lib32/libmingw32.a(lib32_libmingw32_a-pseudo-reloc.o) (_imp__VirtualProtect@16)
C:/MinGW64/mingw64-6.3.0/bin/../lib/gcc/x86_64-w64-mingw32/6.3.0/../../../../x86_64-w64-mingw32/lib/../lib32/libkernel32.a(dkzds01209.o)
                              C:/MinGW64/mingw64-6.3.0/bin/../lib/gcc/x86_64-w64-mingw32/6.3.0/../../../../x86_64-w64-mingw32/lib/../lib32/libmingw32.a(lib32_libmingw32_a-gs_support.o) (_imp__UnhandledExceptionFilter@4)
C:/MinGW64/mingw64-6.3.0/bin/../lib/gcc/x86_64-w64-mingw32/6.3.0/../../../../x86_64-w64-mingw32/lib/../lib32/libkernel32.a(dkzds01196.o)
                              C:/MinGW64/mingw64-6.3.0/bin/../lib/gcc/x86_64-w64-mingw32/6.3.0/../../../../x86_64-w64-mingw32/lib/../lib32/libmingw32.a(lib32_libmingw32_a-tlsthrd.o) (_imp__TlsGetValue@4)
C:/MinGW64/mingw64-6.3.0/bin/../lib/gcc/x86_64-w64-mingw32/6.3.0/../../../../x86_64-w64-mingw32/lib/../lib32/libkernel32.a(dkzds01189.o)
                              C:/MinGW64/mingw64-6.3.0/bin/../lib/gcc/x86_64-w64-mingw32/6.3.0/../../../../x86_64-w64-mingw32/lib/../lib32/libmingw32.a(lib32_libmingw32_a-gs_support.o) (_imp__TerminateProcess@8)
C:/MinGW64/mingw64-6.3.0/bin/../lib/gcc/x86_64-w64-mingw32/6.3.0/../../../../x86_64-w64-mingw32/lib/../lib32/libkernel32.a(dkzds01175.o)
                              C:/MinGW64/mingw64-6.3.0/bin/../lib/gcc/x86_64-w64-mingw32/6.3.0/../../../../x86_64-w64-mingw32/lib/../lib32/crt2.o (_imp__Sleep@4)
C:/MinGW64/mingw64-6.3.0/bin/../lib/gcc/x86_64-w64-mingw32/6.3.0/../../../../x86_64-w64-mingw32/lib/../lib32/libkernel32.a(dkzds01162.o)
                              C:/MinGW64/mingw64-6.3.0/bin/../lib/gcc/x86_64-w64-mingw32/6.3.0/../../../../x86_64-w64-mingw32/lib/../lib32/crt2.o (_imp__SetUnhandledExceptionFilter@4)
C:/MinGW64/mingw64-6.3.0/bin/../lib/gcc/x86_64-w64-mingw32/6.3.0/../../../../x86_64-w64-mingw32/lib/../lib32/libkernel32.a(dkzds00949.o)
                              C:/MinGW64/mingw64-6.3.0/bin/../lib/gcc/x86_64-w64-mingw32/6.3.0/../../../../x86_64-w64-mingw32/lib/../lib32/libmingw32.a(lib32_libmingw32_a-gs_support.o) (_imp__QueryPerformanceCounter@4)
C:/MinGW64/mingw64-6.3.0/bin/../lib/gcc/x86_64-w64-mingw32/6.3.0/../../../../x86_64-w64-mingw32/lib/../lib32/libkernel32.a(dkzds00836.o)
                              C:/MinGW64/mingw64-6.3.0/bin/../lib/gcc/x86_64-w64-mingw32/6.3.0/../../../../x86_64-w64-mingw32/lib/../lib32/libmingw32.a(lib32_libmingw32_a-tlsthrd.o) (_imp__LeaveCriticalSection@4)
C:/MinGW64/mingw64-6.3.0/bin/../lib/gcc/x86_64-w64-mingw32/6.3.0/../../../../x86_64-w64-mingw32/lib/../lib32/libkernel32.a(dkzds00750.o)
                              C:/MinGW64/mingw64-6.3.0/bin/../lib/gcc/x86_64-w64-mingw32/6.3.0/../../../../x86_64-w64-mingw32/lib/../lib32/libmingw32.a(lib32_libmingw32_a-tlsthrd.o) (_imp__InitializeCriticalSection@4)
C:/MinGW64/mingw64-6.3.0/bin/../lib/gcc/x86_64-w64-mingw32/6.3.0/../../../../x86_64-w64-mingw32/lib/../lib32/libkernel32.a(dkzds00666.o)
                              C:/MinGW64/mingw64-6.3.0/bin/../lib/gcc/x86_64-w64-mingw32/6.3.0/../../../../x86_64-w64-mingw32/lib/../lib32/libmingw32.a(lib32_libmingw32_a-gs_support.o) (_imp__GetTickCount@0)
C:/MinGW64/mingw64-6.3.0/bin/../lib/gcc/x86_64-w64-mingw32/6.3.0/../../../../x86_64-w64-mingw32/lib/../lib32/libkernel32.a(dkzds00638.o)
                              C:/MinGW64/mingw64-6.3.0/bin/../lib/gcc/x86_64-w64-mingw32/6.3.0/../../../../x86_64-w64-mingw32/lib/../lib32/libmingw32.a(lib32_libmingw32_a-gs_support.o) (_imp__GetSystemTimeAsFileTime@4)
C:/MinGW64/mingw64-6.3.0/bin/../lib/gcc/x86_64-w64-mingw32/6.3.0/../../../../x86_64-w64-mingw32/lib/../lib32/libkernel32.a(dkzds00615.o)
                              C:/MinGW64/mingw64-6.3.0/bin/../lib/gcc/x86_64-w64-mingw32/6.3.0/../../../../x86_64-w64-mingw32/lib/../lib32/crt2.o (_imp__GetStartupInfoA@4)
C:/MinGW64/mingw64-6.3.0/bin/../lib/gcc/x86_64-w64-mingw32/6.3.0/../../../../x86_64-w64-mingw32/lib/../lib32/libkernel32.a(dkzds00584.o)
                              C:/MinGW64/mingw64-6.3.0/bin/../lib/gcc/x86_64-w64-mingw32/6.3.0/32/crtbegin.o (_imp__GetProcAddress@8)
C:/MinGW64/mingw64-6.3.0/bin/../lib/gcc/x86_64-w64-mingw32/6.3.0/../../../../x86_64-w64-mingw32/lib/../lib32/libkernel32.a(dkzds00536.o)
                              C:/MinGW64/mingw64-6.3.0/bin/../lib/gcc/x86_64-w64-mingw32/6.3.0/32/crtbegin.o (_imp__GetModuleHandleA@4)
C:/MinGW64/mingw64-6.3.0/bin/../lib/gcc/x86_64-w64-mingw32/6.3.0/../../../../x86_64-w64-mingw32/lib/../lib32/libkernel32.a(dkzds00518.o)
                              C:/MinGW64/mingw64-6.3.0/bin/../lib/gcc/x86_64-w64-mingw32/6.3.0/../../../../x86_64-w64-mingw32/lib/../lib32/libmingw32.a(lib32_libmingw32_a-pseudo-reloc.o) (_imp__GetLastError@0)
C:/MinGW64/mingw64-6.3.0/bin/../lib/gcc/x86_64-w64-mingw32/6.3.0/../../../../x86_64-w64-mingw32/lib/../lib32/libkernel32.a(dkzds00460.o)
                              C:/MinGW64/mingw64-6.3.0/bin/../lib/gcc/x86_64-w64-mingw32/6.3.0/../../../../x86_64-w64-mingw32/lib/../lib32/libmingw32.a(lib32_libmingw32_a-gs_support.o) (_imp__GetCurrentThreadId@0)
C:/MinGW64/mingw64-6.3.0/bin/../lib/gcc/x86_64-w64-mingw32/6.3.0/../../../../x86_64-w64-mingw32/lib/../lib32/libkernel32.a(dkzds00456.o)
                              C:/MinGW64/mingw64-6.3.0/bin/../lib/gcc/x86_64-w64-mingw32/6.3.0/../../../../x86_64-w64-mingw32/lib/../lib32/libmingw32.a(lib32_libmingw32_a-gs_support.o) (_imp__GetCurrentProcessId@0)
C:/MinGW64/mingw64-6.3.0/bin/../lib/gcc/x86_64-w64-mingw32/6.3.0/../../../../x86_64-w64-mingw32/lib/../lib32/libkernel32.a(dkzds00455.o)
                              C:/MinGW64/mingw64-6.3.0/bin/../lib/gcc/x86_64-w64-mingw32/6.3.0/../../../../x86_64-w64-mingw32/lib/../lib32/libmingw32.a(lib32_libmingw32_a-gs_support.o) (_imp__GetCurrentProcess@0)
C:/MinGW64/mingw64-6.3.0/bin/../lib/gcc/x86_64-w64-mingw32/6.3.0/../../../../x86_64-w64-mingw32/lib/../lib32/libkernel32.a(dkzds00242.o)
                              C:/MinGW64/mingw64-6.3.0/bin/../lib/gcc/x86_64-w64-mingw32/6.3.0/../../../../x86_64-w64-mingw32/lib/../lib32/libmingw32.a(lib32_libmingw32_a-tlsthrd.o) (_imp__EnterCriticalSection@4)
C:/MinGW64/mingw64-6.3.0/bin/../lib/gcc/x86_64-w64-mingw32/6.3.0/../../../../x86_64-w64-mingw32/lib/../lib32/libkernel32.a(dkzds00214.o)
                              C:/MinGW64/mingw64-6.3.0/bin/../lib/gcc/x86_64-w64-mingw32/6.3.0/../../../../x86_64-w64-mingw32/lib/../lib32/libmingw32.a(lib32_libmingw32_a-tlsthrd.o) (_imp__DeleteCriticalSection@4)
C:/MinGW64/mingw64-6.3.0/bin/../lib/gcc/x86_64-w64-mingw32/6.3.0/../../../../x86_64-w64-mingw32/lib/../lib32/libkernel32.a(dkzdh.o)
                              C:/MinGW64/mingw64-6.3.0/bin/../lib/gcc/x86_64-w64-mingw32/6.3.0/../../../../x86_64-w64-mingw32/lib/../lib32/libkernel32.a(dkzds01245.o) (_head_lib32_libkernel32_a)
C:/MinGW64/mingw64-6.3.0/bin/../lib/gcc/x86_64-w64-mingw32/6.3.0/../../../../x86_64-w64-mingw32/lib/../lib32/libkernel32.a(dkzdt.o)
                              C:/MinGW64/mingw64-6.3.0/bin/../lib/gcc/x86_64-w64-mingw32/6.3.0/../../../../x86_64-w64-mingw32/lib/../lib32/libkernel32.a(dkzdh.o) (_lib32_libkernel32_a_iname)

Allocating common symbols
Common symbol       size              file

__DTOR_LIST__       0x8               C:/MinGW64/mingw64-6.3.0/bin/../lib/gcc/x86_64-w64-mingw32/6.3.0/32/libgcc.a(_ctors.o)
BasicAudio_Target_DW
                    0x1c              OpenJADE\out\preamp1\x86\lib\Baf\Baf.lib(BasicAudio_Target.o)
Basicaudio_target_Fwd_Ipc_buffer
                    0x4               OpenJADE\out\preamp1\x86\lib\Baf\Baf.lib(Audio_Graph.o)
rsp_Talaria         0x140             OpenJADE\out\preamp1\x86\obj\app\Baf\Baf\OJSP.o
__native_startup_lock
                    0x4               C:/MinGW64/mingw64-6.3.0/bin/../lib/gcc/x86_64-w64-mingw32/6.3.0/../../../../x86_64-w64-mingw32/lib/../lib32/libmingw32.a(lib32_libmingw32_a-natstart.o)
g_ojspConfig        0x8               OpenJADE\out\preamp1\x86\obj\app\Baf\Baf\OJSP.o
g_request_buff      0x1000            OpenJADE\out\preamp1\x86\lib\Platform\Baf\SIL.lib(oj_platform.o)
__onexitend         0x4               C:/MinGW64/mingw64-6.3.0/bin/../lib/gcc/x86_64-w64-mingw32/6.3.0/../../../../x86_64-w64-mingw32/lib/../lib32/libmingw32.a(lib32_libmingw32_a-atonexit.o)
g_response_buff     0x1000            OpenJADE\out\preamp1\x86\lib\Platform\Baf\SIL.lib(oj_platform.o)
g_control_hex       0x2000            OpenJADE\out\preamp1\x86\lib\Platform\Baf\SIL.lib(oj_platform.o)
__native_startup_state
                    0x4               C:/MinGW64/mingw64-6.3.0/bin/../lib/gcc/x86_64-w64-mingw32/6.3.0/../../../../x86_64-w64-mingw32/lib/../lib32/libmingw32.a(lib32_libmingw32_a-natstart.o)
__onexitbegin       0x4               C:/MinGW64/mingw64-6.3.0/bin/../lib/gcc/x86_64-w64-mingw32/6.3.0/../../../../x86_64-w64-mingw32/lib/../lib32/libmingw32.a(lib32_libmingw32_a-atonexit.o)
__mingw_winmain_lpCmdLine
                    0x4               C:/MinGW64/mingw64-6.3.0/bin/../lib/gcc/x86_64-w64-mingw32/6.3.0/../../../../x86_64-w64-mingw32/lib/../lib32/crt2.o
req_Talaria         0x140             OpenJADE\out\preamp1\x86\obj\app\Baf\Baf\OJSP.o
__CTOR_LIST__       0x8               C:/MinGW64/mingw64-6.3.0/bin/../lib/gcc/x86_64-w64-mingw32/6.3.0/32/libgcc.a(_ctors.o)
UnitTest_Target_AudioIn
                    0x4               OpenJADE\out\preamp1\x86\lib\Baf\Baf.lib(Audio_Graph.o)
BasicAudio_Target_B
                    0x64c             OpenJADE\out\preamp1\x86\lib\Baf\Baf.lib(BasicAudio_Target.o)
UnitTest_Target_AudioOut
                    0x4               OpenJADE\out\preamp1\x86\lib\Baf\Baf.lib(Audio_Graph.o)
g_platfromConfig    0x7c              OpenJADE\out\preamp1\x86\lib\Platform\Baf\SIL.lib(oj_platform.o)
BAF_logger          0x60              OpenJADE\out\preamp1\x86\lib\Baf\Baf.lib(BAF.o)
heap_buffer         0x4000            OpenJADE\out\preamp1\x86\obj\app\Baf\Baf\OJSP.o
__mingw_winmain_hInstance
                    0x4               C:/MinGW64/mingw64-6.3.0/bin/../lib/gcc/x86_64-w64-mingw32/6.3.0/../../../../x86_64-w64-mingw32/lib/../lib32/crt2.o
heap_log_buffer     0x1800            OpenJADE\out\preamp1\x86\obj\app\Baf\Baf\OJSP.o

Discarded input sections

 .drectve       0x0000000000000000       0x54 C:/MinGW64/mingw64-6.3.0/bin/../lib/gcc/x86_64-w64-mingw32/6.3.0/../../../../x86_64-w64-mingw32/lib/../lib32/crt2.o
 .drectve       0x0000000000000000       0x94 OpenJADE\out\preamp1\x86\obj\app\Baf\Baf\OJSP.o
 .drectve       0x0000000000000000       0x1c OpenJADE\out\preamp1\x86\lib\Baf\Baf.lib(BAF.o)
 .drectve       0x0000000000000000       0x84 OpenJADE\out\preamp1\x86\lib\Baf\Baf.lib(Audio_Graph.o)
 .drectve       0x0000000000000000       0x4c OpenJADE\out\preamp1\x86\lib\Baf\Baf.lib(BasicAudio_Target.o)
 .drectve       0x0000000000000000       0x80 OpenJADE\out\preamp1\x86\lib\Platform\Baf\SIL.lib(oj_platform.o)
 .drectve       0x0000000000000000       0x3c C:/MinGW64/mingw64-6.3.0/bin/../lib/gcc/x86_64-w64-mingw32/6.3.0/../../../../x86_64-w64-mingw32/lib/../lib32/libmingw32.a(lib32_libmingw32_a-atonexit.o)
 .drectve       0x0000000000000000       0x50 C:/MinGW64/mingw64-6.3.0/bin/../lib/gcc/x86_64-w64-mingw32/6.3.0/../../../../x86_64-w64-mingw32/lib/../lib32/libmingw32.a(lib32_libmingw32_a-natstart.o)
 .drectve       0x0000000000000000       0x3c C:/MinGW64/mingw64-6.3.0/bin/../lib/gcc/x86_64-w64-mingw32/6.3.0/32/libgcc.a(_ctors.o)
 .text          0x0000000000000000        0x8 C:/MinGW64/mingw64-6.3.0/bin/../lib/gcc/x86_64-w64-mingw32/6.3.0/../../../../x86_64-w64-mingw32/lib/../lib32/libmsvcrt.a(dakes00068.o)
 .text          0x0000000000000000        0x8 C:/MinGW64/mingw64-6.3.0/bin/../lib/gcc/x86_64-w64-mingw32/6.3.0/../../../../x86_64-w64-mingw32/lib/../lib32/libkernel32.a(dkzds01245.o)
 .text          0x0000000000000000        0x8 C:/MinGW64/mingw64-6.3.0/bin/../lib/gcc/x86_64-w64-mingw32/6.3.0/../../../../x86_64-w64-mingw32/lib/../lib32/libkernel32.a(dkzds01242.o)
 .text          0x0000000000000000        0x8 C:/MinGW64/mingw64-6.3.0/bin/../lib/gcc/x86_64-w64-mingw32/6.3.0/../../../../x86_64-w64-mingw32/lib/../lib32/libkernel32.a(dkzds01209.o)
 .text          0x0000000000000000        0x8 C:/MinGW64/mingw64-6.3.0/bin/../lib/gcc/x86_64-w64-mingw32/6.3.0/../../../../x86_64-w64-mingw32/lib/../lib32/libkernel32.a(dkzds01196.o)
 .text          0x0000000000000000        0x8 C:/MinGW64/mingw64-6.3.0/bin/../lib/gcc/x86_64-w64-mingw32/6.3.0/../../../../x86_64-w64-mingw32/lib/../lib32/libkernel32.a(dkzds01189.o)
 .text          0x0000000000000000        0x8 C:/MinGW64/mingw64-6.3.0/bin/../lib/gcc/x86_64-w64-mingw32/6.3.0/../../../../x86_64-w64-mingw32/lib/../lib32/libkernel32.a(dkzds01175.o)
 .text          0x0000000000000000        0x8 C:/MinGW64/mingw64-6.3.0/bin/../lib/gcc/x86_64-w64-mingw32/6.3.0/../../../../x86_64-w64-mingw32/lib/../lib32/libkernel32.a(dkzds01162.o)
 .text          0x0000000000000000        0x8 C:/MinGW64/mingw64-6.3.0/bin/../lib/gcc/x86_64-w64-mingw32/6.3.0/../../../../x86_64-w64-mingw32/lib/../lib32/libkernel32.a(dkzds00949.o)
 .text          0x0000000000000000        0x8 C:/MinGW64/mingw64-6.3.0/bin/../lib/gcc/x86_64-w64-mingw32/6.3.0/../../../../x86_64-w64-mingw32/lib/../lib32/libkernel32.a(dkzds00836.o)
 .text          0x0000000000000000        0x8 C:/MinGW64/mingw64-6.3.0/bin/../lib/gcc/x86_64-w64-mingw32/6.3.0/../../../../x86_64-w64-mingw32/lib/../lib32/libkernel32.a(dkzds00750.o)
 .text          0x0000000000000000        0x8 C:/MinGW64/mingw64-6.3.0/bin/../lib/gcc/x86_64-w64-mingw32/6.3.0/../../../../x86_64-w64-mingw32/lib/../lib32/libkernel32.a(dkzds00666.o)
 .text          0x0000000000000000        0x8 C:/MinGW64/mingw64-6.3.0/bin/../lib/gcc/x86_64-w64-mingw32/6.3.0/../../../../x86_64-w64-mingw32/lib/../lib32/libkernel32.a(dkzds00638.o)
 .text          0x0000000000000000        0x8 C:/MinGW64/mingw64-6.3.0/bin/../lib/gcc/x86_64-w64-mingw32/6.3.0/../../../../x86_64-w64-mingw32/lib/../lib32/libkernel32.a(dkzds00615.o)
 .text          0x0000000000000000        0x8 C:/MinGW64/mingw64-6.3.0/bin/../lib/gcc/x86_64-w64-mingw32/6.3.0/../../../../x86_64-w64-mingw32/lib/../lib32/libkernel32.a(dkzds00584.o)
 .text          0x0000000000000000        0x8 C:/MinGW64/mingw64-6.3.0/bin/../lib/gcc/x86_64-w64-mingw32/6.3.0/../../../../x86_64-w64-mingw32/lib/../lib32/libkernel32.a(dkzds00536.o)
 .text          0x0000000000000000        0x8 C:/MinGW64/mingw64-6.3.0/bin/../lib/gcc/x86_64-w64-mingw32/6.3.0/../../../../x86_64-w64-mingw32/lib/../lib32/libkernel32.a(dkzds00518.o)
 .text          0x0000000000000000        0x8 C:/MinGW64/mingw64-6.3.0/bin/../lib/gcc/x86_64-w64-mingw32/6.3.0/../../../../x86_64-w64-mingw32/lib/../lib32/libkernel32.a(dkzds00460.o)
 .text          0x0000000000000000        0x8 C:/MinGW64/mingw64-6.3.0/bin/../lib/gcc/x86_64-w64-mingw32/6.3.0/../../../../x86_64-w64-mingw32/lib/../lib32/libkernel32.a(dkzds00456.o)
 .text          0x0000000000000000        0x8 C:/MinGW64/mingw64-6.3.0/bin/../lib/gcc/x86_64-w64-mingw32/6.3.0/../../../../x86_64-w64-mingw32/lib/../lib32/libkernel32.a(dkzds00455.o)
 .text          0x0000000000000000        0x8 C:/MinGW64/mingw64-6.3.0/bin/../lib/gcc/x86_64-w64-mingw32/6.3.0/../../../../x86_64-w64-mingw32/lib/../lib32/libkernel32.a(dkzds00242.o)
 .text          0x0000000000000000        0x8 C:/MinGW64/mingw64-6.3.0/bin/../lib/gcc/x86_64-w64-mingw32/6.3.0/../../../../x86_64-w64-mingw32/lib/../lib32/libkernel32.a(dkzds00214.o)

Memory Configuration

Name             Origin             Length             Attributes
*default*        0x0000000000000000 0xffffffffffffffff

Linker script and memory map

                0x0000000000400000                __image_base__ = 0x400000
                0x0000000000000000                __dll__ = 0x0
                0x0000000000400000                ___ImageBase = 0x400000
                0x0000000000001000                __section_alignment__ = 0x1000
                0x0000000000000200                __file_alignment__ = 0x200
                0x0000000000000004                __major_os_version__ = 0x4
                0x0000000000000000                __minor_os_version__ = 0x0
                0x0000000000000001                __major_image_version__ = 0x1
                0x0000000000000000                __minor_image_version__ = 0x0
                0x0000000000000004                __major_subsystem_version__ = 0x4
                0x0000000000000000                __minor_subsystem_version__ = 0x0
                0x0000000000000003                __subsystem__ = 0x3
                0x0000000000200000                __size_of_stack_reserve__ = 0x200000
                0x0000000000001000                __size_of_stack_commit__ = 0x1000
                0x0000000000100000                __size_of_heap_reserve__ = 0x100000
                0x0000000000001000                __size_of_heap_commit__ = 0x1000
                0x0000000000000000                __loader_flags__ = 0x0
                0x0000000000000000                __dll_characteristics__ = 0x0
LOAD C:/MinGW64/mingw64-6.3.0/bin/../lib/gcc/x86_64-w64-mingw32/6.3.0/../../../../x86_64-w64-mingw32/lib/../lib32/crt2.o
LOAD C:/MinGW64/mingw64-6.3.0/bin/../lib/gcc/x86_64-w64-mingw32/6.3.0/32/crtbegin.o
LOAD OpenJADE\out\preamp1\x86\obj\app\Baf\Baf\OJSP.o
LOAD OpenJADE\out\preamp1\x86\obj\app\Baf\Integration_Example.o
LOAD OpenJADE\out\preamp1\x86\lib\Baf\Baf.lib
LOAD OpenJADE\out\preamp1\x86\lib\Platform\Baf\SIL.lib
LOAD C:/MinGW64/mingw64-6.3.0/bin/../lib/gcc/x86_64-w64-mingw32/6.3.0/../../../../x86_64-w64-mingw32/lib/../lib32/libmingw32.a
LOAD C:/MinGW64/mingw64-6.3.0/bin/../lib/gcc/x86_64-w64-mingw32/6.3.0/32/libgcc.a
LOAD C:/MinGW64/mingw64-6.3.0/bin/../lib/gcc/x86_64-w64-mingw32/6.3.0/32/libgcc_eh.a
LOAD C:/MinGW64/mingw64-6.3.0/bin/../lib/gcc/x86_64-w64-mingw32/6.3.0/../../../../x86_64-w64-mingw32/lib/../lib32/libmoldname.a
LOAD C:/MinGW64/mingw64-6.3.0/bin/../lib/gcc/x86_64-w64-mingw32/6.3.0/../../../../x86_64-w64-mingw32/lib/../lib32/libmingwex.a
LOAD C:/MinGW64/mingw64-6.3.0/bin/../lib/gcc/x86_64-w64-mingw32/6.3.0/../../../../x86_64-w64-mingw32/lib/../lib32/libmsvcrt.a
LOAD C:/MinGW64/mingw64-6.3.0/bin/../lib/gcc/x86_64-w64-mingw32/6.3.0/../../../../x86_64-w64-mingw32/lib/../lib32/libpthread.dll.a
LOAD C:/MinGW64/mingw64-6.3.0/bin/../lib/gcc/x86_64-w64-mingw32/6.3.0/../../../../x86_64-w64-mingw32/lib/../lib32/libadvapi32.a
LOAD C:/MinGW64/mingw64-6.3.0/bin/../lib/gcc/x86_64-w64-mingw32/6.3.0/../../../../x86_64-w64-mingw32/lib/../lib32/libshell32.a
LOAD C:/MinGW64/mingw64-6.3.0/bin/../lib/gcc/x86_64-w64-mingw32/6.3.0/../../../../x86_64-w64-mingw32/lib/../lib32/libuser32.a
LOAD C:/MinGW64/mingw64-6.3.0/bin/../lib/gcc/x86_64-w64-mingw32/6.3.0/../../../../x86_64-w64-mingw32/lib/../lib32/libkernel32.a
LOAD C:/MinGW64/mingw64-6.3.0/bin/../lib/gcc/x86_64-w64-mingw32/6.3.0/../../../../x86_64-w64-mingw32/lib/../lib32/libiconv.a
LOAD C:/MinGW64/mingw64-6.3.0/bin/../lib/gcc/x86_64-w64-mingw32/6.3.0/../../../../x86_64-w64-mingw32/lib/../lib32/libmingw32.a
LOAD C:/MinGW64/mingw64-6.3.0/bin/../lib/gcc/x86_64-w64-mingw32/6.3.0/32/libgcc.a
LOAD C:/MinGW64/mingw64-6.3.0/bin/../lib/gcc/x86_64-w64-mingw32/6.3.0/32/libgcc_eh.a
LOAD C:/MinGW64/mingw64-6.3.0/bin/../lib/gcc/x86_64-w64-mingw32/6.3.0/../../../../x86_64-w64-mingw32/lib/../lib32/libmoldname.a
LOAD C:/MinGW64/mingw64-6.3.0/bin/../lib/gcc/x86_64-w64-mingw32/6.3.0/../../../../x86_64-w64-mingw32/lib/../lib32/libmingwex.a
LOAD C:/MinGW64/mingw64-6.3.0/bin/../lib/gcc/x86_64-w64-mingw32/6.3.0/../../../../x86_64-w64-mingw32/lib/../lib32/libmsvcrt.a
LOAD C:/MinGW64/mingw64-6.3.0/bin/../lib/gcc/x86_64-w64-mingw32/6.3.0/32/crtend.o
                0x0000000000000380                . = SIZEOF_HEADERS
                0x0000000000001000                . = ALIGN (__section_alignment__)

.text           0x0000000000401000     0xb800
 *(.init)
 *(.text)
 .text          0x0000000000401000      0x500 C:/MinGW64/mingw64-6.3.0/bin/../lib/gcc/x86_64-w64-mingw32/6.3.0/../../../../x86_64-w64-mingw32/lib/../lib32/crt2.o
                0x00000000004014c0                WinMainCRTStartup
                0x00000000004014e0                mainCRTStartup
 .text          0x0000000000401500       0x70 C:/MinGW64/mingw64-6.3.0/bin/../lib/gcc/x86_64-w64-mingw32/6.3.0/32/crtbegin.o
                0x0000000000401500                __gcc_register_frame
                0x0000000000401560                __gcc_deregister_frame
 .text          0x0000000000401570      0x434 OpenJADE\out\preamp1\x86\obj\app\Baf\Baf\OJSP.o
                0x0000000000401570                OJSP_notification
                0x000000000040159e                OJSP_control_service_message
                0x0000000000401619                OJSP_background_task
                0x000000000040161f                OJSP_notification_poll
                0x0000000000401677                OJSP_audio_service_tick
                0x00000000004016b2                BAF_Callback_post
                0x00000000004016d7                BAF_Callback_sys_process
                0x0000000000401784                BAF_Callback_sys_process_ctx
                0x0000000000401831                BAF_Callback_clock
                0x0000000000401848                BAF_Callback_post_mask
                0x000000000040184e                BAF_printf
                0x0000000000401874                OJSP_framework_init
                0x000000000040198e                OJSP_heap_log_buffer_size
                0x0000000000401998                OJSP_heap_log_buffer_addr
 .text          0x00000000004019a4       0xb0 OpenJADE\out\preamp1\x86\obj\app\Baf\Integration_Example.o
                0x00000000004019a4                main
 .text          0x0000000000401a54      0x71c OpenJADE\out\preamp1\x86\lib\Baf\Baf.lib(BAF.o)
                0x0000000000401a96                _BAF_Callback_sys_process_ctx
                0x0000000000401b1e                BAF_resource
                0x0000000000401b7e                BAF_create
                0x0000000000401b88                BAF_init
                0x0000000000401d60                BAF_exec
                0x0000000000401ef6                BAF_command
                0x0000000000401f9c                BAF_register_notify
                0x0000000000401fbd                BAF_schedule
                0x000000000040211a                BAF_version
                0x0000000000402124                BAF_logger_size
                0x000000000040212e                BAF_logger_addr
                0x0000000000402138                BAF_Register_post
                0x0000000000402153                BAF_Register_sys_process_ctx
 .text          0x0000000000402170       0x70 OpenJADE\out\preamp1\x86\lib\Baf\Baf.lib(Error.o)
                0x0000000000402170                Error_print
 .text          0x00000000004021e0      0xbc0 OpenJADE\out\preamp1\x86\lib\Baf\Baf.lib(Framework_Builder.o)
                0x00000000004021e0                Framework_Builder_get_framework
                0x00000000004021eb                Framework_Builder_init
                0x00000000004023a4                Framework_Builder_build_framework
                0x0000000000402564                Framework_Builder_resource
                0x0000000000402847                Framework_Builder_add_execution
                0x00000000004028fa                Framework_Builder_add_module
                0x00000000004029b9                Framework_Builder_add_buffer
                0x0000000000402b9b                Framework_Builder_add_connection
                0x0000000000402d5e                JModule_List_get_feature
 .text          0x0000000000402da0      0x170 OpenJADE\out\preamp1\x86\lib\Baf\Baf.lib(Heap.o)
                0x0000000000402da0                Heap_init
                0x0000000000402dc0                Heap_alloc
                0x0000000000402e3c                Heap_alloc_align
 .text          0x0000000000402f10     0x1608 OpenJADE\out\preamp1\x86\lib\Baf\Baf.lib(JFramework.o)
                0x0000000000402f10                JFramework_thread_exec
                0x0000000000402fe4                JFramework_init
                0x000000000040303e                JFramework_add_buffer
                0x00000000004030b3                JFramework_add_module
                0x000000000040316a                JFramework_add_execution
                0x000000000040327b                JFramework_get_buffer
                0x00000000004032d1                JFramework_command
                0x000000000040431c                JFramework_register_notify
                0x00000000004043ba                JFramework_notify
                0x00000000004043fc                JFramework_init_exec
                0x00000000004044b4                JFramework_get_module
 .text          0x0000000000404518      0x304 OpenJADE\out\preamp1\x86\lib\Baf\Baf.lib(JModule_Context.o)
                0x0000000000404518                JModule_Context_create
                0x000000000040454e                JModule_Context_alloc
                0x00000000004045a0                JModule_Context_create_
 .text          0x000000000040481c      0x7cc OpenJADE\out\preamp1\x86\lib\Baf\Baf.lib(Logger.o)
                0x000000000040481c                Logger_print
                0x00000000004048ee                Logger_print1
                0x00000000004049bc                Logger_msg
                0x0000000000404a7a                Logger_init
                0x0000000000404b0f                Logger_reset
                0x0000000000404b39                Logger_dump
                0x0000000000404df3                Logger_copy
                0x0000000000404ece                Logger_pull
 .text          0x0000000000404fe8      0x254 OpenJADE\out\preamp1\x86\lib\Baf\Baf.lib(Module.o)
                0x0000000000404fe8                Module_get_process
                0x0000000000405008                Module_get_process_context
                0x0000000000405027                Module_set_port_in_connection
                0x0000000000405131                Module_set_port_out_connection
 .text          0x000000000040523c      0x104 OpenJADE\out\preamp1\x86\lib\Baf\Baf.lib(Port.o)
                0x000000000040523c                Port_compare
                0x00000000004052d8                Port_setup
                0x0000000000405321                Port_block_size
 .text          0x0000000000405340      0x2fc OpenJADE\out\preamp1\x86\lib\Baf\Baf.lib(Ports.o)
                0x0000000000405340                Ports_compare_merge
 .text          0x000000000040563c      0x4c8 OpenJADE\out\preamp1\x86\lib\Baf\Baf.lib(Process.o)
                0x000000000040563c                Process_exec
                0x0000000000405ad6                Process_get_port_in
                0x0000000000405aec                Process_get_port_out
 .text          0x0000000000405b04       0x38 OpenJADE\out\preamp1\x86\lib\Baf\Baf.lib(Process_Context.o)
                0x0000000000405b04                Process_Context_get_port_in
                0x0000000000405b20                Process_Context_get_port_out
 .text          0x0000000000405b3c      0x298 OpenJADE\out\preamp1\x86\lib\Baf\Baf.lib(Audio_Graph.o)
                0x0000000000405bc4                Basicaudio_target_Init_IPC
 .text          0x0000000000405dd4     0x3060 OpenJADE\out\preamp1\x86\lib\Baf\Baf.lib(BasicAudio_Target.o)
                0x0000000000405dd4                RtcReqRsp_BasicAudioVolumeSet
                0x0000000000405e54                RtcNtfCheck_BasicAudioVolumeSet
                0x0000000000405e8e                RtcNtfPack_BasicAudioVolumeSet
                0x0000000000405ebf                RtcReqRsp_BasicAudioBalanceSet
                0x0000000000405f34                RtcNtfCheck_BasicAudioBalanceSet
                0x0000000000405fa2                RtcNtfPack_BasicAudioBalanceSet
                0x0000000000405fd3                RtcReqRsp_BasicAudioMuteSet
                0x0000000000406048                RtcNtfCheck_BasicAudioMuteSet
                0x0000000000406082                RtcNtfPack_BasicAudioMuteSet
                0x00000000004060b3                RtcReqRsp_BasicAudioBassSet
                0x0000000000406128                RtcNtfCheck_BasicAudioBassSet
                0x000000000040615b                RtcNtfPack_BasicAudioBassSet
                0x000000000040618c                RtcReqRsp_BasicAudioTrebleSet
                0x0000000000406201                RtcNtfCheck_BasicAudioTrebleSet
                0x0000000000406234                RtcNtfPack_BasicAudioTrebleSet
                0x0000000000406265                BasicAudio_Target_LockEnter
                0x000000000040626b                BasicAudio_Target_LockExit
                0x0000000000406271                BasicAudio_Target_SetDsm
                0x000000000040628b                BasicAudio_Target_control
                0x00000000004067b0                BasicAudio_Target_SetDsm1
                0x00000000004067ca                HandleReqBasicAudioBalanceSet
                0x0000000000406ba9                BasicAudio_Target_indextolinear
                0x0000000000406c1c                BasicAudio_Target_rampparameters
                0x0000000000406cf4                BasicAudio_Target_SetDsm_a
                0x0000000000406d0e                BasicAudio_Target_tonecontrol
                0x0000000000407198                BasicAudio_Target_SetDsm1_m
                0x00000000004071b2                HandleReqBasicAudioBassSet
                0x0000000000407277                BasicAudio_Target_tone
                0x00000000004075ac                HandleReqBasicAudioMuteSet
                0x00000000004077b2                BasicAudio_Target_SetDsm_l
                0x00000000004077cc                BasicAudio_Target_tonecontrol_o
                0x0000000000407c56                BasicAudio_Target_SetDsm1_f
                0x0000000000407c70                HandleReqBasicAudioTrebleSet
                0x0000000000407d35                BasicAudio_Target_tone_e
                0x000000000040806a                BasicAudio_Target_lookupdbfromindex
                0x000000000040832e                BasicAudio_Target_rampparameters_o
                0x00000000004083e5                BasicAudio_Target_SetDsm_f
                0x00000000004083ff                BasicAudio_Target_rgainyrampercontrol
                0x0000000000408582                BasicAudio_Target_SetDsm1_g
                0x000000000040859c                HandleReqBasicAudioVolumeSet
                0x0000000000408649                BasicAudio_Target_rgainyprocess
                0x0000000000408887                BasicAudio_Target_step
                0x0000000000408e20                BasicAudio_Target_initialize
                0x0000000000408e2d                BasicAudio_Target_terminate
 .text          0x0000000000408e34        0x0 OpenJADE\out\preamp1\x86\lib\Baf\Baf.lib(BasicAudio_Target_BasicAudio0_TOP.o)
 .text          0x0000000000408e34        0x0 OpenJADE\out\preamp1\x86\lib\Baf\Baf.lib(BasicAudio_Target_data.o)
 .text          0x0000000000408e34        0x0 OpenJADE\out\preamp1\x86\lib\Baf\Baf.lib(BasicAudio_Target_StructStaticInit.o)
 .text          0x0000000000408e34       0xf4 OpenJADE\out\preamp1\x86\lib\Baf\Baf.lib(BasicAudio_Target_TalariaAPI.o)
                0x0000000000408e34                BasicAudio_Target_HandleAsdIdRequest
                0x0000000000408efa                BasicAudio_Target_ServiceNotifications
 .text          0x0000000000408f28      0x3d8 OpenJADE\out\preamp1\x86\lib\Baf\Baf.lib(BasicAudio_Target_TOP_Access.o)
                0x00000000004090b1                BasicAudio_Target_HandleTopRequest
 .text          0x0000000000409300      0x140 OpenJADE\out\preamp1\x86\lib\Baf\Baf.lib(BasicAudio_Target_RTC_NTF.o)
                0x0000000000409300                BasicAudio_Target_ServiceRtcNotifications
 .text          0x0000000000409440       0x5c OpenJADE\out\preamp1\x86\lib\Baf\Baf.lib(BasicAudio_Target_RTC_REQ_RSP.o)
                0x0000000000409440                BasicAudio_Target_HandleRtcRequest
 .text          0x000000000040949c      0x394 OpenJADE\out\preamp1\x86\lib\Baf\Baf.lib(BasicAudio_Target_SCH_API.o)
                0x000000000040949c                SchReqRsp_GetTalariaVersion1
                0x000000000040951c                SchReqRsp_GetTopCompatHash1
                0x0000000000409555                SchReqRsp_GetTspCompatHash1
                0x000000000040958e                SchReqRsp_GetRtcCompatHash1
                0x000000000040967b                BasicAudio_Target_UseDispatchTable
                0x00000000004097ea                BasicAudio_Target_HandleSchRequest
 .text          0x0000000000409830      0xcd0 OpenJADE\out\preamp1\x86\lib\Platform\Baf\SIL.lib(oj_platform.o)
                0x0000000000409842                platform_register_framework_init
                0x0000000000409859                platform_register_audio_service_tick
                0x0000000000409871                platform_register_control_service_message
                0x0000000000409889                platform_register_notification_poll
                0x00000000004098a1                platform_add_background_task
                0x00000000004098ed                platform_remove_background_task
                0x000000000040993b                platform_clear_background_tasks
                0x000000000040996d                platform_vprintf
                0x0000000000409987                platform_printf
                0x00000000004099ad                xmit_control_service_request
                0x0000000000409a2c                xmit_control_service_response
                0x0000000000409ab4                xmit_control_service_error
                0x0000000000409aee                platform_send_notification
                0x0000000000409b2e                platform_rcv_input_buffer
                0x0000000000409b93                platform_xmt_output_buffer
                0x0000000000409c4a                read_control_line
                0x0000000000409d90                set_next_control_frame
                0x0000000000409e0e                platform_poll_control_service_message
                0x0000000000409f57                platform_print_usage
                0x0000000000409f75                set_run_parameters
                0x000000000040a354                platform_init
                0x000000000040a36e                platform_get_handle
                0x000000000040a378                platform_main
                0x000000000040a486                platform_close
 .text          0x000000000040a500       0xe0 C:/MinGW64/mingw64-6.3.0/bin/../lib/gcc/x86_64-w64-mingw32/6.3.0/../../../../x86_64-w64-mingw32/lib/../lib32/libmingw32.a(lib32_libmingw32_a-atonexit.o)
                0x000000000040a500                mingw_onexit
                0x000000000040a5c0                atexit
 .text          0x000000000040a5e0       0xa0 C:/MinGW64/mingw64-6.3.0/bin/../lib/gcc/x86_64-w64-mingw32/6.3.0/../../../../x86_64-w64-mingw32/lib/../lib32/libmingw32.a(lib32_libmingw32_a-gccmain.o)
                0x000000000040a5e0                __do_global_dtors
                0x000000000040a610                __do_global_ctors
                0x000000000040a660                __main
 .text          0x000000000040a680        0x0 C:/MinGW64/mingw64-6.3.0/bin/../lib/gcc/x86_64-w64-mingw32/6.3.0/../../../../x86_64-w64-mingw32/lib/../lib32/libmingw32.a(lib32_libmingw32_a-natstart.o)
 .text          0x000000000040a680        0x0 C:/MinGW64/mingw64-6.3.0/bin/../lib/gcc/x86_64-w64-mingw32/6.3.0/../../../../x86_64-w64-mingw32/lib/../lib32/libmingw32.a(lib32_libmingw32_a-wildcard.o)
 .text          0x000000000040a680       0x10 C:/MinGW64/mingw64-6.3.0/bin/../lib/gcc/x86_64-w64-mingw32/6.3.0/../../../../x86_64-w64-mingw32/lib/../lib32/libmingw32.a(lib32_libmingw32_a-charmax.o)
 .text          0x000000000040a690       0x10 C:/MinGW64/mingw64-6.3.0/bin/../lib/gcc/x86_64-w64-mingw32/6.3.0/../../../../x86_64-w64-mingw32/lib/../lib32/libmingw32.a(lib32_libmingw32_a-dllargv.o)
                0x000000000040a690                _setargv
 .text          0x000000000040a6a0      0x140 C:/MinGW64/mingw64-6.3.0/bin/../lib/gcc/x86_64-w64-mingw32/6.3.0/../../../../x86_64-w64-mingw32/lib/../lib32/libmingw32.a(lib32_libmingw32_a-gs_support.o)
                0x000000000040a6a0                __security_init_cookie
                0x000000000040a750                __report_gsfailure
 .text          0x000000000040a7e0        0x0 C:/MinGW64/mingw64-6.3.0/bin/../lib/gcc/x86_64-w64-mingw32/6.3.0/../../../../x86_64-w64-mingw32/lib/../lib32/libmingw32.a(lib32_libmingw32_a-_newmode.o)
 .text          0x000000000040a7e0       0xe0 C:/MinGW64/mingw64-6.3.0/bin/../lib/gcc/x86_64-w64-mingw32/6.3.0/../../../../x86_64-w64-mingw32/lib/../lib32/libmingw32.a(lib32_libmingw32_a-tlssup.o)
                0x000000000040a830                __dyn_tls_init@12
                0x000000000040a8b0                __tlregdtor
 .text          0x000000000040a8c0        0x0 C:/MinGW64/mingw64-6.3.0/bin/../lib/gcc/x86_64-w64-mingw32/6.3.0/../../../../x86_64-w64-mingw32/lib/../lib32/libmingw32.a(lib32_libmingw32_a-cinitexe.o)
 .text          0x000000000040a8c0       0xc0 C:/MinGW64/mingw64-6.3.0/bin/../lib/gcc/x86_64-w64-mingw32/6.3.0/../../../../x86_64-w64-mingw32/lib/../lib32/libmingw32.a(lib32_libmingw32_a-merr.o)
                0x000000000040a8c0                __mingw_raise_matherr
                0x000000000040a910                __mingw_setusermatherr
                0x000000000040a920                _matherr
 .text          0x000000000040a980       0x10 C:/MinGW64/mingw64-6.3.0/bin/../lib/gcc/x86_64-w64-mingw32/6.3.0/../../../../x86_64-w64-mingw32/lib/../lib32/libmingw32.a(lib32_libmingw32_a-CRT_fp10.o)
                0x000000000040a980                fpreset
                0x000000000040a980                _fpreset
 .text          0x000000000040a990       0x20 C:/MinGW64/mingw64-6.3.0/bin/../lib/gcc/x86_64-w64-mingw32/6.3.0/../../../../x86_64-w64-mingw32/lib/../lib32/libmingw32.a(lib32_libmingw32_a-mingw_helpers.o)
                0x000000000040a990                _decode_pointer
                0x000000000040a9a0                _encode_pointer
 .text          0x000000000040a9b0      0x470 C:/MinGW64/mingw64-6.3.0/bin/../lib/gcc/x86_64-w64-mingw32/6.3.0/../../../../x86_64-w64-mingw32/lib/../lib32/libmingw32.a(lib32_libmingw32_a-pseudo-reloc.o)
                0x000000000040ab50                _pei386_runtime_relocator
 .text          0x000000000040ae20        0x0 C:/MinGW64/mingw64-6.3.0/bin/../lib/gcc/x86_64-w64-mingw32/6.3.0/../../../../x86_64-w64-mingw32/lib/../lib32/libmingw32.a(lib32_libmingw32_a-xtxtmode.o)
 .text          0x000000000040ae20      0x1b0 C:/MinGW64/mingw64-6.3.0/bin/../lib/gcc/x86_64-w64-mingw32/6.3.0/../../../../x86_64-w64-mingw32/lib/../lib32/libmingw32.a(lib32_libmingw32_a-crt_handler.o)
                0x000000000040ae20                _gnu_exception_handler@4
 .text          0x000000000040afd0      0x280 C:/MinGW64/mingw64-6.3.0/bin/../lib/gcc/x86_64-w64-mingw32/6.3.0/../../../../x86_64-w64-mingw32/lib/../lib32/libmingw32.a(lib32_libmingw32_a-tlsthrd.o)
                0x000000000040b040                ___w64_mingwthr_add_key_dtor
                0x000000000040b0d0                ___w64_mingwthr_remove_key_dtor
                0x000000000040b170                __mingw_TLScallback
 .text          0x000000000040b250        0x0 C:/MinGW64/mingw64-6.3.0/bin/../lib/gcc/x86_64-w64-mingw32/6.3.0/../../../../x86_64-w64-mingw32/lib/../lib32/libmingw32.a(lib32_libmingw32_a-tlsmcrt.o)
 .text          0x000000000040b250        0x0 C:/MinGW64/mingw64-6.3.0/bin/../lib/gcc/x86_64-w64-mingw32/6.3.0/../../../../x86_64-w64-mingw32/lib/../lib32/libmingw32.a(lib32_libmingw32_a-pseudo-reloc-list.o)
 .text          0x000000000040b250      0x380 C:/MinGW64/mingw64-6.3.0/bin/../lib/gcc/x86_64-w64-mingw32/6.3.0/../../../../x86_64-w64-mingw32/lib/../lib32/libmingw32.a(lib32_libmingw32_a-pesect.o)
                0x000000000040b270                _ValidateImageBase
                0x000000000040b290                _FindPESection
                0x000000000040b2d0                _FindPESectionByName
                0x000000000040b360                __mingw_GetSectionForAddress
                0x000000000040b3d0                __mingw_GetSectionCount
                0x000000000040b400                _FindPESectionExec
                0x000000000040b470                _GetPEImageBase
                0x000000000040b4a0                _IsNonwritableInCurrentImage
                0x000000000040b520                __mingw_enum_import_library_names
 .text          0x000000000040b5d0       0x2c C:/MinGW64/mingw64-6.3.0/bin/../lib/gcc/x86_64-w64-mingw32/6.3.0/32/libgcc.a(_chkstk_ms.o)
                0x000000000040b5d0                __chkstk_ms
 .text          0x000000000040b5fc        0x0 C:/MinGW64/mingw64-6.3.0/bin/../lib/gcc/x86_64-w64-mingw32/6.3.0/32/libgcc.a(_ctors.o)
 .text          0x000000000040b5fc       0x2c C:/MinGW64/mingw64-6.3.0/bin/../lib/gcc/x86_64-w64-mingw32/6.3.0/../../../../x86_64-w64-mingw32/lib/../lib32/libmingwex.a(lib32_libmingwex_a-ceilf.o)
                0x000000000040b5fc                ceilf
 *fill*         0x000000000040b628        0x8 
 .text          0x000000000040b630       0x20 C:/MinGW64/mingw64-6.3.0/bin/../lib/gcc/x86_64-w64-mingw32/6.3.0/../../../../x86_64-w64-mingw32/lib/../lib32/libmingwex.a(lib32_libmingwex_a-expf.o)
                0x000000000040b630                expf
 .text          0x000000000040b650       0x30 C:/MinGW64/mingw64-6.3.0/bin/../lib/gcc/x86_64-w64-mingw32/6.3.0/../../../../x86_64-w64-mingw32/lib/../lib32/libmingwex.a(lib32_libmingwex_a-fmaxf.o)
                0x000000000040b650                fmaxf
 .text          0x000000000040b680       0x30 C:/MinGW64/mingw64-6.3.0/bin/../lib/gcc/x86_64-w64-mingw32/6.3.0/../../../../x86_64-w64-mingw32/lib/../lib32/libmingwex.a(lib32_libmingwex_a-fminf.o)
                0x000000000040b680                fminf
 .text          0x000000000040b6b0       0x20 C:/MinGW64/mingw64-6.3.0/bin/../lib/gcc/x86_64-w64-mingw32/6.3.0/../../../../x86_64-w64-mingw32/lib/../lib32/libmingwex.a(lib32_libmingwex_a-log10f.o)
                0x000000000040b6b0                log10f
 .text          0x000000000040b6d0       0x20 C:/MinGW64/mingw64-6.3.0/bin/../lib/gcc/x86_64-w64-mingw32/6.3.0/../../../../x86_64-w64-mingw32/lib/../lib32/libmingwex.a(lib32_libmingwex_a-logf.o)
                0x000000000040b6d0                logf
 .text          0x000000000040b6f0       0x30 C:/MinGW64/mingw64-6.3.0/bin/../lib/gcc/x86_64-w64-mingw32/6.3.0/../../../../x86_64-w64-mingw32/lib/../lib32/libmingwex.a(lib32_libmingwex_a-powf.o)
                0x000000000040b6f0                powf
 .text          0x000000000040b720       0x70 C:/MinGW64/mingw64-6.3.0/bin/../lib/gcc/x86_64-w64-mingw32/6.3.0/../../../../x86_64-w64-mingw32/lib/../lib32/libmingwex.a(lib32_libmingwex_a-roundf.o)
                0x000000000040b720                roundf
 .text          0x000000000040b790      0x120 C:/MinGW64/mingw64-6.3.0/bin/../lib/gcc/x86_64-w64-mingw32/6.3.0/../../../../x86_64-w64-mingw32/lib/../lib32/libmingwex.a(lib32_libmingwex_a-sqrtf.o)
                0x000000000040b790                sqrtf
 .text          0x000000000040b8b0        0x0 C:/MinGW64/mingw64-6.3.0/bin/../lib/gcc/x86_64-w64-mingw32/6.3.0/../../../../x86_64-w64-mingw32/lib/../lib32/libmingwex.a(lib32_libmingwex_a-mingw_matherr.o)
 .text          0x000000000040b8b0      0x1e0 C:/MinGW64/mingw64-6.3.0/bin/../lib/gcc/x86_64-w64-mingw32/6.3.0/../../../../x86_64-w64-mingw32/lib/../lib32/libmingwex.a(lib32_libmingwex_a-exp.o)
                0x000000000040b8b0                exp
 .text          0x000000000040ba90      0x110 C:/MinGW64/mingw64-6.3.0/bin/../lib/gcc/x86_64-w64-mingw32/6.3.0/../../../../x86_64-w64-mingw32/lib/../lib32/libmingwex.a(lib32_libmingwex_a-log.o)
                0x000000000040ba90                log
 .text          0x000000000040bba0      0x740 C:/MinGW64/mingw64-6.3.0/bin/../lib/gcc/x86_64-w64-mingw32/6.3.0/../../../../x86_64-w64-mingw32/lib/../lib32/libmingwex.a(lib32_libmingwex_a-pow.o)
                0x000000000040bba0                pow
 .text          0x000000000040c2e0      0x240 C:/MinGW64/mingw64-6.3.0/bin/../lib/gcc/x86_64-w64-mingw32/6.3.0/../../../../x86_64-w64-mingw32/lib/../lib32/libmingwex.a(lib32_libmingwex_a-powi.o)
                0x000000000040c2e0                __powi
 .text          0x000000000040c520       0x50 C:/MinGW64/mingw64-6.3.0/bin/../lib/gcc/x86_64-w64-mingw32/6.3.0/../../../../x86_64-w64-mingw32/lib/../lib32/libmingwex.a(lib32_libmingwex_a-exp2l.o)
                0x000000000040c520                exp2l
 .text          0x000000000040c570       0x3c C:/MinGW64/mingw64-6.3.0/bin/../lib/gcc/x86_64-w64-mingw32/6.3.0/../../../../x86_64-w64-mingw32/lib/../lib32/libmingwex.a(lib32_libmingwex_a-internal_logl.o)
                0x000000000040c580                __logl_internal
 *fill*         0x000000000040c5ac        0x4 
 .text          0x000000000040c5b0       0x90 C:/MinGW64/mingw64-6.3.0/bin/../lib/gcc/x86_64-w64-mingw32/6.3.0/../../../../x86_64-w64-mingw32/lib/../lib32/libmingwex.a(lib32_libmingwex_a-ldexp.o)
                0x000000000040c5b0                ldexp
 .text          0x000000000040c640       0x48 C:/MinGW64/mingw64-6.3.0/bin/../lib/gcc/x86_64-w64-mingw32/6.3.0/../../../../x86_64-w64-mingw32/lib/../lib32/libmingwex.a(lib32_libmingwex_a-log2l.o)
                0x000000000040c650                log2l
 .text          0x000000000040c688        0x8 C:/MinGW64/mingw64-6.3.0/bin/../lib/gcc/x86_64-w64-mingw32/6.3.0/../../../../x86_64-w64-mingw32/lib/../lib32/libmsvcrt.a(dakes01258.o)
                0x000000000040c688                vprintf
 .text          0x000000000040c690        0x8 C:/MinGW64/mingw64-6.3.0/bin/../lib/gcc/x86_64-w64-mingw32/6.3.0/../../../../x86_64-w64-mingw32/lib/../lib32/libmsvcrt.a(dakes01254.o)
                0x000000000040c690                vfprintf
 .text          0x000000000040c698        0x8 C:/MinGW64/mingw64-6.3.0/bin/../lib/gcc/x86_64-w64-mingw32/6.3.0/../../../../x86_64-w64-mingw32/lib/../lib32/libmsvcrt.a(dakes01221.o)
                0x000000000040c698                strncmp
 .text          0x000000000040c6a0        0x8 C:/MinGW64/mingw64-6.3.0/bin/../lib/gcc/x86_64-w64-mingw32/6.3.0/../../../../x86_64-w64-mingw32/lib/../lib32/libmsvcrt.a(dakes01218.o)
                0x000000000040c6a0                strlen
 .text          0x000000000040c6a8        0x8 C:/MinGW64/mingw64-6.3.0/bin/../lib/gcc/x86_64-w64-mingw32/6.3.0/../../../../x86_64-w64-mingw32/lib/../lib32/libmsvcrt.a(dakes01200.o)
                0x000000000040c6a8                signal
 .text          0x000000000040c6b0        0x8 C:/MinGW64/mingw64-6.3.0/bin/../lib/gcc/x86_64-w64-mingw32/6.3.0/../../../../x86_64-w64-mingw32/lib/../lib32/libmsvcrt.a(dakes01175.o)
                0x000000000040c6b0                memset
 .text          0x000000000040c6b8        0x8 C:/MinGW64/mingw64-6.3.0/bin/../lib/gcc/x86_64-w64-mingw32/6.3.0/../../../../x86_64-w64-mingw32/lib/../lib32/libmsvcrt.a(dakes01172.o)
                0x000000000040c6b8                memcpy
 .text          0x000000000040c6c0        0x8 C:/MinGW64/mingw64-6.3.0/bin/../lib/gcc/x86_64-w64-mingw32/6.3.0/../../../../x86_64-w64-mingw32/lib/../lib32/libmsvcrt.a(dakes01164.o)
                0x000000000040c6c0                malloc
 .text          0x000000000040c6c8        0x8 C:/MinGW64/mingw64-6.3.0/bin/../lib/gcc/x86_64-w64-mingw32/6.3.0/../../../../x86_64-w64-mingw32/lib/../lib32/libmsvcrt.a(dakes01162.o)
                0x000000000040c6c8                log10
 .text          0x000000000040c6d0        0x8 C:/MinGW64/mingw64-6.3.0/bin/../lib/gcc/x86_64-w64-mingw32/6.3.0/../../../../x86_64-w64-mingw32/lib/../lib32/libmsvcrt.a(dakes01117.o)
                0x000000000040c6d0                fwrite
 .text          0x000000000040c6d8        0x8 C:/MinGW64/mingw64-6.3.0/bin/../lib/gcc/x86_64-w64-mingw32/6.3.0/../../../../x86_64-w64-mingw32/lib/../lib32/libmsvcrt.a(dakes01105.o)
                0x000000000040c6d8                free
 .text          0x000000000040c6e0        0x8 C:/MinGW64/mingw64-6.3.0/bin/../lib/gcc/x86_64-w64-mingw32/6.3.0/../../../../x86_64-w64-mingw32/lib/../lib32/libmsvcrt.a(dakes01104.o)
                0x000000000040c6e0                fread
 .text          0x000000000040c6e8        0x8 C:/MinGW64/mingw64-6.3.0/bin/../lib/gcc/x86_64-w64-mingw32/6.3.0/../../../../x86_64-w64-mingw32/lib/../lib32/libmsvcrt.a(dakes01100.o)
                0x000000000040c6e8                fputc
 .text          0x000000000040c6f0        0x8 C:/MinGW64/mingw64-6.3.0/bin/../lib/gcc/x86_64-w64-mingw32/6.3.0/../../../../x86_64-w64-mingw32/lib/../lib32/libmsvcrt.a(dakes01098.o)
                0x000000000040c6f0                fprintf
 .text          0x000000000040c6f8        0x8 C:/MinGW64/mingw64-6.3.0/bin/../lib/gcc/x86_64-w64-mingw32/6.3.0/../../../../x86_64-w64-mingw32/lib/../lib32/libmsvcrt.a(dakes01096.o)
                0x000000000040c6f8                fopen
 .text          0x000000000040c700        0x8 C:/MinGW64/mingw64-6.3.0/bin/../lib/gcc/x86_64-w64-mingw32/6.3.0/../../../../x86_64-w64-mingw32/lib/../lib32/libmsvcrt.a(dakes01091.o)
                0x000000000040c700                fgets
 .text          0x000000000040c708        0x8 C:/MinGW64/mingw64-6.3.0/bin/../lib/gcc/x86_64-w64-mingw32/6.3.0/../../../../x86_64-w64-mingw32/lib/../lib32/libmsvcrt.a(dakes01086.o)
                0x000000000040c708                feof
 .text          0x000000000040c710        0x8 C:/MinGW64/mingw64-6.3.0/bin/../lib/gcc/x86_64-w64-mingw32/6.3.0/../../../../x86_64-w64-mingw32/lib/../lib32/libmsvcrt.a(dakes01085.o)
                0x000000000040c710                fclose
 .text          0x000000000040c718        0x8 C:/MinGW64/mingw64-6.3.0/bin/../lib/gcc/x86_64-w64-mingw32/6.3.0/../../../../x86_64-w64-mingw32/lib/../lib32/libmsvcrt.a(dakes01082.o)
                0x000000000040c718                exit
 .text          0x000000000040c720        0x8 C:/MinGW64/mingw64-6.3.0/bin/../lib/gcc/x86_64-w64-mingw32/6.3.0/../../../../x86_64-w64-mingw32/lib/../lib32/libmsvcrt.a(dakes01071.o)
                0x000000000040c720                calloc
 .text          0x000000000040c728        0x8 C:/MinGW64/mingw64-6.3.0/bin/../lib/gcc/x86_64-w64-mingw32/6.3.0/../../../../x86_64-w64-mingw32/lib/../lib32/libmsvcrt.a(dakes01057.o)
                0x000000000040c728                abort
 .text          0x000000000040c730        0x8 C:/MinGW64/mingw64-6.3.0/bin/../lib/gcc/x86_64-w64-mingw32/6.3.0/../../../../x86_64-w64-mingw32/lib/../lib32/libmsvcrt.a(dakes00844.o)
                0x000000000040c730                _unlock
 .text          0x000000000040c738        0x0 C:/MinGW64/mingw64-6.3.0/bin/../lib/gcc/x86_64-w64-mingw32/6.3.0/../../../../x86_64-w64-mingw32/lib/../lib32/libmsvcrt.a(dakes00629.o)
 .text          0x000000000040c738        0x8 C:/MinGW64/mingw64-6.3.0/bin/../lib/gcc/x86_64-w64-mingw32/6.3.0/../../../../x86_64-w64-mingw32/lib/../lib32/libmsvcrt.a(dakes00458.o)
                0x000000000040c738                _lock
 .text          0x000000000040c740        0x0 C:/MinGW64/mingw64-6.3.0/bin/../lib/gcc/x86_64-w64-mingw32/6.3.0/../../../../x86_64-w64-mingw32/lib/../lib32/libmsvcrt.a(dakes00356.o)
 .text          0x000000000040c740        0x8 C:/MinGW64/mingw64-6.3.0/bin/../lib/gcc/x86_64-w64-mingw32/6.3.0/../../../../x86_64-w64-mingw32/lib/../lib32/libmsvcrt.a(dakes00352.o)
                0x000000000040c740                _initterm
 .text          0x000000000040c748        0x0 C:/MinGW64/mingw64-6.3.0/bin/../lib/gcc/x86_64-w64-mingw32/6.3.0/../../../../x86_64-w64-mingw32/lib/../lib32/libmsvcrt.a(dakes00275.o)
 .text          0x000000000040c748        0x8 C:/MinGW64/mingw64-6.3.0/bin/../lib/gcc/x86_64-w64-mingw32/6.3.0/../../../../x86_64-w64-mingw32/lib/../lib32/libmsvcrt.a(dakes00222.o)
                0x000000000040c748                _errno
 .text          0x000000000040c750        0x8 C:/MinGW64/mingw64-6.3.0/bin/../lib/gcc/x86_64-w64-mingw32/6.3.0/../../../../x86_64-w64-mingw32/lib/../lib32/libmsvcrt.a(dakes00161.o)
                0x000000000040c750                _cexit
 .text          0x000000000040c758        0x8 C:/MinGW64/mingw64-6.3.0/bin/../lib/gcc/x86_64-w64-mingw32/6.3.0/../../../../x86_64-w64-mingw32/lib/../lib32/libmsvcrt.a(dakes00144.o)
                0x000000000040c758                _amsg_exit
 .text          0x000000000040c760        0x0 C:/MinGW64/mingw64-6.3.0/bin/../lib/gcc/x86_64-w64-mingw32/6.3.0/../../../../x86_64-w64-mingw32/lib/../lib32/libmsvcrt.a(dakes00123.o)
 .text          0x000000000040c760        0x8 C:/MinGW64/mingw64-6.3.0/bin/../lib/gcc/x86_64-w64-mingw32/6.3.0/../../../../x86_64-w64-mingw32/lib/../lib32/libmsvcrt.a(dakes00107.o)
                0x000000000040c760                __setusermatherr
 .text          0x000000000040c768        0x8 C:/MinGW64/mingw64-6.3.0/bin/../lib/gcc/x86_64-w64-mingw32/6.3.0/../../../../x86_64-w64-mingw32/lib/../lib32/libmsvcrt.a(dakes00104.o)
                0x000000000040c768                __set_app_type
 .text          0x000000000040c770        0x0 C:/MinGW64/mingw64-6.3.0/bin/../lib/gcc/x86_64-w64-mingw32/6.3.0/../../../../x86_64-w64-mingw32/lib/../lib32/libmsvcrt.a(dakes00059.o)
 .text          0x000000000040c770        0x8 C:/MinGW64/mingw64-6.3.0/bin/../lib/gcc/x86_64-w64-mingw32/6.3.0/../../../../x86_64-w64-mingw32/lib/../lib32/libmsvcrt.a(dakes00058.o)
                0x000000000040c770                __getmainargs
 .text          0x000000000040c778        0x8 C:/MinGW64/mingw64-6.3.0/bin/../lib/gcc/x86_64-w64-mingw32/6.3.0/../../../../x86_64-w64-mingw32/lib/../lib32/libmsvcrt.a(dakes00055.o)
                0x000000000040c778                __dllonexit
 .text          0x000000000040c780       0x20 C:/MinGW64/mingw64-6.3.0/bin/../lib/gcc/x86_64-w64-mingw32/6.3.0/../../../../x86_64-w64-mingw32/lib/../lib32/libmsvcrt.a(lib32_libmsvcrt_a-invalid_parameter_handler.o)
                0x000000000040c780                _get_invalid_parameter_handler
                0x000000000040c790                _set_invalid_parameter_handler
 .text          0x000000000040c7a0        0x0 C:/MinGW64/mingw64-6.3.0/bin/../lib/gcc/x86_64-w64-mingw32/6.3.0/../../../../x86_64-w64-mingw32/lib/../lib32/libmsvcrt.a(dakeh.o)
 .text          0x000000000040c7a0        0x0 C:/MinGW64/mingw64-6.3.0/bin/../lib/gcc/x86_64-w64-mingw32/6.3.0/../../../../x86_64-w64-mingw32/lib/../lib32/libmsvcrt.a(daket.o)
 .text          0x000000000040c7a0        0x0 C:/MinGW64/mingw64-6.3.0/bin/../lib/gcc/x86_64-w64-mingw32/6.3.0/../../../../x86_64-w64-mingw32/lib/../lib32/libkernel32.a(dkzdh.o)
 .text          0x000000000040c7a0        0x0 C:/MinGW64/mingw64-6.3.0/bin/../lib/gcc/x86_64-w64-mingw32/6.3.0/../../../../x86_64-w64-mingw32/lib/../lib32/libkernel32.a(dkzdt.o)
 .text          0x000000000040c7a0        0x0 C:/MinGW64/mingw64-6.3.0/bin/../lib/gcc/x86_64-w64-mingw32/6.3.0/32/crtend.o
 *(SORT(.text$*))
 *(.text.*)
 .text.startup  0x000000000040c7a0       0x10 C:/MinGW64/mingw64-6.3.0/bin/../lib/gcc/x86_64-w64-mingw32/6.3.0/32/crtend.o
 *(.gnu.linkonce.t.*)
 *(.glue_7t)
 *(.glue_7)
                0x000000000040c7b0                ___CTOR_LIST__ = .
                0x000000000040c7b0                __CTOR_LIST__ = .
                0x000000000040c7b0        0x4 LONG 0xffffffffffffffff
 *(.ctors)
 *(.ctor)
 *(SORT(.ctors.*))
 .ctors.65535   0x000000000040c7b4        0x4 C:/MinGW64/mingw64-6.3.0/bin/../lib/gcc/x86_64-w64-mingw32/6.3.0/32/crtend.o
                0x000000000040c7b8        0x4 LONG 0x0
                0x000000000040c7bc                ___DTOR_LIST__ = .
                0x000000000040c7bc                __DTOR_LIST__ = .
                0x000000000040c7bc        0x4 LONG 0xffffffffffffffff
 *(.dtors)
 *(.dtor)
 *(SORT(.dtors.*))
                0x000000000040c7c0        0x4 LONG 0x0
 *(.fini)
 *(.gcc_exc)
                [!provide]                        PROVIDE (etext, .)
                [!provide]                        PROVIDE (_etext, .)
 *(.gcc_except_table)

.data           0x000000000040d000      0xa00
                0x000000000040d000                __data_start__ = .
 *(.data)
 .data          0x000000000040d000        0x4 C:/MinGW64/mingw64-6.3.0/bin/../lib/gcc/x86_64-w64-mingw32/6.3.0/../../../../x86_64-w64-mingw32/lib/../lib32/crt2.o
                0x000000000040d000                __mingw_winmain_nShowCmd
 .data          0x000000000040d004        0x0 C:/MinGW64/mingw64-6.3.0/bin/../lib/gcc/x86_64-w64-mingw32/6.3.0/32/crtbegin.o
 .data          0x000000000040d004        0x0 OpenJADE\out\preamp1\x86\obj\app\Baf\Baf\OJSP.o
 .data          0x000000000040d004        0x0 OpenJADE\out\preamp1\x86\obj\app\Baf\Integration_Example.o
 .data          0x000000000040d004        0x0 OpenJADE\out\preamp1\x86\lib\Baf\Baf.lib(BAF.o)
 .data          0x000000000040d004        0x0 OpenJADE\out\preamp1\x86\lib\Baf\Baf.lib(Error.o)
 .data          0x000000000040d004        0x0 OpenJADE\out\preamp1\x86\lib\Baf\Baf.lib(Framework_Builder.o)
 .data          0x000000000040d004        0x0 OpenJADE\out\preamp1\x86\lib\Baf\Baf.lib(Heap.o)
 *fill*         0x000000000040d004       0x1c 
 .data          0x000000000040d020       0x20 OpenJADE\out\preamp1\x86\lib\Baf\Baf.lib(JFramework.o)
 .data          0x000000000040d040        0x0 OpenJADE\out\preamp1\x86\lib\Baf\Baf.lib(JModule_Context.o)
 .data          0x000000000040d040        0x0 OpenJADE\out\preamp1\x86\lib\Baf\Baf.lib(Logger.o)
 .data          0x000000000040d040        0x0 OpenJADE\out\preamp1\x86\lib\Baf\Baf.lib(Module.o)
 .data          0x000000000040d040        0x0 OpenJADE\out\preamp1\x86\lib\Baf\Baf.lib(Port.o)
 .data          0x000000000040d040        0x0 OpenJADE\out\preamp1\x86\lib\Baf\Baf.lib(Ports.o)
 .data          0x000000000040d040        0x0 OpenJADE\out\preamp1\x86\lib\Baf\Baf.lib(Process.o)
 .data          0x000000000040d040        0x0 OpenJADE\out\preamp1\x86\lib\Baf\Baf.lib(Process_Context.o)
 .data          0x000000000040d040      0x460 OpenJADE\out\preamp1\x86\lib\Baf\Baf.lib(Audio_Graph.o)
                0x000000000040d498                pBAF_obj
 .data          0x000000000040d4a0        0x0 OpenJADE\out\preamp1\x86\lib\Baf\Baf.lib(BasicAudio_Target.o)
 .data          0x000000000040d4a0      0x1c0 OpenJADE\out\preamp1\x86\lib\Baf\Baf.lib(BasicAudio_Target_BasicAudio0_TOP.o)
                0x000000000040d4a0                BasicAudio_Target_BasicAudio0
 .data          0x000000000040d660        0x0 OpenJADE\out\preamp1\x86\lib\Baf\Baf.lib(BasicAudio_Target_data.o)
 .data          0x000000000040d660      0x100 OpenJADE\out\preamp1\x86\lib\Baf\Baf.lib(BasicAudio_Target_StructStaticInit.o)
                0x000000000040d660                BasicAudio_TargetBasicAudioBassSetRtcOut
                0x000000000040d674                BasicAudio_TargetBasicAudioTrebleSetRtcOut
                0x000000000040d6a0                BasicAudio_TargetControlDsms
 .data          0x000000000040d760        0x0 OpenJADE\out\preamp1\x86\lib\Baf\Baf.lib(BasicAudio_Target_TalariaAPI.o)
 .data          0x000000000040d760       0x40 OpenJADE\out\preamp1\x86\lib\Baf\Baf.lib(BasicAudio_Target_TOP_Access.o)
 .data          0x000000000040d7a0      0x100 OpenJADE\out\preamp1\x86\lib\Baf\Baf.lib(BasicAudio_Target_RTC_NTF.o)
 .data          0x000000000040d8a0       0x40 OpenJADE\out\preamp1\x86\lib\Baf\Baf.lib(BasicAudio_Target_RTC_REQ_RSP.o)
 .data          0x000000000040d8e0       0x80 OpenJADE\out\preamp1\x86\lib\Baf\Baf.lib(BasicAudio_Target_SCH_API.o)
                0x000000000040d8e0                talariaVersion1
                0x000000000040d900                SchDispathTable1
 .data          0x000000000040d960        0x0 OpenJADE\out\preamp1\x86\lib\Platform\Baf\SIL.lib(oj_platform.o)
 .data          0x000000000040d960        0x0 C:/MinGW64/mingw64-6.3.0/bin/../lib/gcc/x86_64-w64-mingw32/6.3.0/../../../../x86_64-w64-mingw32/lib/../lib32/libmingw32.a(lib32_libmingw32_a-atonexit.o)
 .data          0x000000000040d960        0x4 C:/MinGW64/mingw64-6.3.0/bin/../lib/gcc/x86_64-w64-mingw32/6.3.0/../../../../x86_64-w64-mingw32/lib/../lib32/libmingw32.a(lib32_libmingw32_a-gccmain.o)
 .data          0x000000000040d964        0x8 C:/MinGW64/mingw64-6.3.0/bin/../lib/gcc/x86_64-w64-mingw32/6.3.0/../../../../x86_64-w64-mingw32/lib/../lib32/libmingw32.a(lib32_libmingw32_a-natstart.o)
                0x000000000040d964                __native_vcclrit_reason
                0x000000000040d968                __native_dllmain_reason
 .data          0x000000000040d96c        0x4 C:/MinGW64/mingw64-6.3.0/bin/../lib/gcc/x86_64-w64-mingw32/6.3.0/../../../../x86_64-w64-mingw32/lib/../lib32/libmingw32.a(lib32_libmingw32_a-wildcard.o)
                0x000000000040d96c                _dowildcard
 .data          0x000000000040d970        0x4 C:/MinGW64/mingw64-6.3.0/bin/../lib/gcc/x86_64-w64-mingw32/6.3.0/../../../../x86_64-w64-mingw32/lib/../lib32/libmingw32.a(lib32_libmingw32_a-charmax.o)
                0x000000000040d970                _charmax
 .data          0x000000000040d974        0x0 C:/MinGW64/mingw64-6.3.0/bin/../lib/gcc/x86_64-w64-mingw32/6.3.0/../../../../x86_64-w64-mingw32/lib/../lib32/libmingw32.a(lib32_libmingw32_a-dllargv.o)
 .data          0x000000000040d974        0x0 C:/MinGW64/mingw64-6.3.0/bin/../lib/gcc/x86_64-w64-mingw32/6.3.0/../../../../x86_64-w64-mingw32/lib/../lib32/libmingw32.a(lib32_libmingw32_a-gs_support.o)
 .data          0x000000000040d974        0x0 C:/MinGW64/mingw64-6.3.0/bin/../lib/gcc/x86_64-w64-mingw32/6.3.0/../../../../x86_64-w64-mingw32/lib/../lib32/libmingw32.a(lib32_libmingw32_a-_newmode.o)
 .data          0x000000000040d974        0x0 C:/MinGW64/mingw64-6.3.0/bin/../lib/gcc/x86_64-w64-mingw32/6.3.0/../../../../x86_64-w64-mingw32/lib/../lib32/libmingw32.a(lib32_libmingw32_a-tlssup.o)
 .data          0x000000000040d974        0x0 C:/MinGW64/mingw64-6.3.0/bin/../lib/gcc/x86_64-w64-mingw32/6.3.0/../../../../x86_64-w64-mingw32/lib/../lib32/libmingw32.a(lib32_libmingw32_a-cinitexe.o)
 .data          0x000000000040d974        0x0 C:/MinGW64/mingw64-6.3.0/bin/../lib/gcc/x86_64-w64-mingw32/6.3.0/../../../../x86_64-w64-mingw32/lib/../lib32/libmingw32.a(lib32_libmingw32_a-merr.o)
 .data          0x000000000040d974        0x0 C:/MinGW64/mingw64-6.3.0/bin/../lib/gcc/x86_64-w64-mingw32/6.3.0/../../../../x86_64-w64-mingw32/lib/../lib32/libmingw32.a(lib32_libmingw32_a-CRT_fp10.o)
 .data          0x000000000040d974        0x0 C:/MinGW64/mingw64-6.3.0/bin/../lib/gcc/x86_64-w64-mingw32/6.3.0/../../../../x86_64-w64-mingw32/lib/../lib32/libmingw32.a(lib32_libmingw32_a-mingw_helpers.o)
 .data          0x000000000040d974        0x0 C:/MinGW64/mingw64-6.3.0/bin/../lib/gcc/x86_64-w64-mingw32/6.3.0/../../../../x86_64-w64-mingw32/lib/../lib32/libmingw32.a(lib32_libmingw32_a-pseudo-reloc.o)
 .data          0x000000000040d974        0x0 C:/MinGW64/mingw64-6.3.0/bin/../lib/gcc/x86_64-w64-mingw32/6.3.0/../../../../x86_64-w64-mingw32/lib/../lib32/libmingw32.a(lib32_libmingw32_a-xtxtmode.o)
 .data          0x000000000040d974        0x0 C:/MinGW64/mingw64-6.3.0/bin/../lib/gcc/x86_64-w64-mingw32/6.3.0/../../../../x86_64-w64-mingw32/lib/../lib32/libmingw32.a(lib32_libmingw32_a-crt_handler.o)
 .data          0x000000000040d974        0x0 C:/MinGW64/mingw64-6.3.0/bin/../lib/gcc/x86_64-w64-mingw32/6.3.0/../../../../x86_64-w64-mingw32/lib/../lib32/libmingw32.a(lib32_libmingw32_a-tlsthrd.o)
 .data          0x000000000040d974        0x4 C:/MinGW64/mingw64-6.3.0/bin/../lib/gcc/x86_64-w64-mingw32/6.3.0/../../../../x86_64-w64-mingw32/lib/../lib32/libmingw32.a(lib32_libmingw32_a-tlsmcrt.o)
                0x000000000040d974                _CRT_MT
 .data          0x000000000040d978        0x0 C:/MinGW64/mingw64-6.3.0/bin/../lib/gcc/x86_64-w64-mingw32/6.3.0/../../../../x86_64-w64-mingw32/lib/../lib32/libmingw32.a(lib32_libmingw32_a-pseudo-reloc-list.o)
 .data          0x000000000040d978        0x0 C:/MinGW64/mingw64-6.3.0/bin/../lib/gcc/x86_64-w64-mingw32/6.3.0/../../../../x86_64-w64-mingw32/lib/../lib32/libmingw32.a(lib32_libmingw32_a-pesect.o)
 .data          0x000000000040d978        0x0 C:/MinGW64/mingw64-6.3.0/bin/../lib/gcc/x86_64-w64-mingw32/6.3.0/32/libgcc.a(_chkstk_ms.o)
 .data          0x000000000040d978        0x0 C:/MinGW64/mingw64-6.3.0/bin/../lib/gcc/x86_64-w64-mingw32/6.3.0/32/libgcc.a(_ctors.o)
 .data          0x000000000040d978        0x0 C:/MinGW64/mingw64-6.3.0/bin/../lib/gcc/x86_64-w64-mingw32/6.3.0/../../../../x86_64-w64-mingw32/lib/../lib32/libmingwex.a(lib32_libmingwex_a-ceilf.o)
 .data          0x000000000040d978        0x0 C:/MinGW64/mingw64-6.3.0/bin/../lib/gcc/x86_64-w64-mingw32/6.3.0/../../../../x86_64-w64-mingw32/lib/../lib32/libmingwex.a(lib32_libmingwex_a-expf.o)
 .data          0x000000000040d978        0x0 C:/MinGW64/mingw64-6.3.0/bin/../lib/gcc/x86_64-w64-mingw32/6.3.0/../../../../x86_64-w64-mingw32/lib/../lib32/libmingwex.a(lib32_libmingwex_a-fmaxf.o)
 .data          0x000000000040d978        0x0 C:/MinGW64/mingw64-6.3.0/bin/../lib/gcc/x86_64-w64-mingw32/6.3.0/../../../../x86_64-w64-mingw32/lib/../lib32/libmingwex.a(lib32_libmingwex_a-fminf.o)
 .data          0x000000000040d978        0x0 C:/MinGW64/mingw64-6.3.0/bin/../lib/gcc/x86_64-w64-mingw32/6.3.0/../../../../x86_64-w64-mingw32/lib/../lib32/libmingwex.a(lib32_libmingwex_a-log10f.o)
 .data          0x000000000040d978        0x0 C:/MinGW64/mingw64-6.3.0/bin/../lib/gcc/x86_64-w64-mingw32/6.3.0/../../../../x86_64-w64-mingw32/lib/../lib32/libmingwex.a(lib32_libmingwex_a-logf.o)
 .data          0x000000000040d978        0x0 C:/MinGW64/mingw64-6.3.0/bin/../lib/gcc/x86_64-w64-mingw32/6.3.0/../../../../x86_64-w64-mingw32/lib/../lib32/libmingwex.a(lib32_libmingwex_a-powf.o)
 .data          0x000000000040d978        0x0 C:/MinGW64/mingw64-6.3.0/bin/../lib/gcc/x86_64-w64-mingw32/6.3.0/../../../../x86_64-w64-mingw32/lib/../lib32/libmingwex.a(lib32_libmingwex_a-roundf.o)
 .data          0x000000000040d978        0x0 C:/MinGW64/mingw64-6.3.0/bin/../lib/gcc/x86_64-w64-mingw32/6.3.0/../../../../x86_64-w64-mingw32/lib/../lib32/libmingwex.a(lib32_libmingwex_a-sqrtf.o)
 .data          0x000000000040d978        0x4 C:/MinGW64/mingw64-6.3.0/bin/../lib/gcc/x86_64-w64-mingw32/6.3.0/../../../../x86_64-w64-mingw32/lib/../lib32/libmingwex.a(lib32_libmingwex_a-mingw_matherr.o)
                0x000000000040d978                _MINGW_INSTALL_DEBUG_MATHERR
 *fill*         0x000000000040d97c        0x4 
 .data          0x000000000040d980       0x20 C:/MinGW64/mingw64-6.3.0/bin/../lib/gcc/x86_64-w64-mingw32/6.3.0/../../../../x86_64-w64-mingw32/lib/../lib32/libmingwex.a(lib32_libmingwex_a-exp.o)
 .data          0x000000000040d9a0        0x0 C:/MinGW64/mingw64-6.3.0/bin/../lib/gcc/x86_64-w64-mingw32/6.3.0/../../../../x86_64-w64-mingw32/lib/../lib32/libmingwex.a(lib32_libmingwex_a-log.o)
 .data          0x000000000040d9a0        0x0 C:/MinGW64/mingw64-6.3.0/bin/../lib/gcc/x86_64-w64-mingw32/6.3.0/../../../../x86_64-w64-mingw32/lib/../lib32/libmingwex.a(lib32_libmingwex_a-pow.o)
 .data          0x000000000040d9a0        0x0 C:/MinGW64/mingw64-6.3.0/bin/../lib/gcc/x86_64-w64-mingw32/6.3.0/../../../../x86_64-w64-mingw32/lib/../lib32/libmingwex.a(lib32_libmingwex_a-powi.o)
 .data          0x000000000040d9a0        0x0 C:/MinGW64/mingw64-6.3.0/bin/../lib/gcc/x86_64-w64-mingw32/6.3.0/../../../../x86_64-w64-mingw32/lib/../lib32/libmingwex.a(lib32_libmingwex_a-exp2l.o)
 .data          0x000000000040d9a0        0x0 C:/MinGW64/mingw64-6.3.0/bin/../lib/gcc/x86_64-w64-mingw32/6.3.0/../../../../x86_64-w64-mingw32/lib/../lib32/libmingwex.a(lib32_libmingwex_a-internal_logl.o)
 .data          0x000000000040d9a0        0x0 C:/MinGW64/mingw64-6.3.0/bin/../lib/gcc/x86_64-w64-mingw32/6.3.0/../../../../x86_64-w64-mingw32/lib/../lib32/libmingwex.a(lib32_libmingwex_a-ldexp.o)
 .data          0x000000000040d9a0        0x0 C:/MinGW64/mingw64-6.3.0/bin/../lib/gcc/x86_64-w64-mingw32/6.3.0/../../../../x86_64-w64-mingw32/lib/../lib32/libmingwex.a(lib32_libmingwex_a-log2l.o)
 .data          0x000000000040d9a0        0x0 C:/MinGW64/mingw64-6.3.0/bin/../lib/gcc/x86_64-w64-mingw32/6.3.0/../../../../x86_64-w64-mingw32/lib/../lib32/libmsvcrt.a(dakes01258.o)
 .data          0x000000000040d9a0        0x0 C:/MinGW64/mingw64-6.3.0/bin/../lib/gcc/x86_64-w64-mingw32/6.3.0/../../../../x86_64-w64-mingw32/lib/../lib32/libmsvcrt.a(dakes01254.o)
 .data          0x000000000040d9a0        0x0 C:/MinGW64/mingw64-6.3.0/bin/../lib/gcc/x86_64-w64-mingw32/6.3.0/../../../../x86_64-w64-mingw32/lib/../lib32/libmsvcrt.a(dakes01221.o)
 .data          0x000000000040d9a0        0x0 C:/MinGW64/mingw64-6.3.0/bin/../lib/gcc/x86_64-w64-mingw32/6.3.0/../../../../x86_64-w64-mingw32/lib/../lib32/libmsvcrt.a(dakes01218.o)
 .data          0x000000000040d9a0        0x0 C:/MinGW64/mingw64-6.3.0/bin/../lib/gcc/x86_64-w64-mingw32/6.3.0/../../../../x86_64-w64-mingw32/lib/../lib32/libmsvcrt.a(dakes01200.o)
 .data          0x000000000040d9a0        0x0 C:/MinGW64/mingw64-6.3.0/bin/../lib/gcc/x86_64-w64-mingw32/6.3.0/../../../../x86_64-w64-mingw32/lib/../lib32/libmsvcrt.a(dakes01175.o)
 .data          0x000000000040d9a0        0x0 C:/MinGW64/mingw64-6.3.0/bin/../lib/gcc/x86_64-w64-mingw32/6.3.0/../../../../x86_64-w64-mingw32/lib/../lib32/libmsvcrt.a(dakes01172.o)
 .data          0x000000000040d9a0        0x0 C:/MinGW64/mingw64-6.3.0/bin/../lib/gcc/x86_64-w64-mingw32/6.3.0/../../../../x86_64-w64-mingw32/lib/../lib32/libmsvcrt.a(dakes01164.o)
 .data          0x000000000040d9a0        0x0 C:/MinGW64/mingw64-6.3.0/bin/../lib/gcc/x86_64-w64-mingw32/6.3.0/../../../../x86_64-w64-mingw32/lib/../lib32/libmsvcrt.a(dakes01162.o)
 .data          0x000000000040d9a0        0x0 C:/MinGW64/mingw64-6.3.0/bin/../lib/gcc/x86_64-w64-mingw32/6.3.0/../../../../x86_64-w64-mingw32/lib/../lib32/libmsvcrt.a(dakes01117.o)
 .data          0x000000000040d9a0        0x0 C:/MinGW64/mingw64-6.3.0/bin/../lib/gcc/x86_64-w64-mingw32/6.3.0/../../../../x86_64-w64-mingw32/lib/../lib32/libmsvcrt.a(dakes01105.o)
 .data          0x000000000040d9a0        0x0 C:/MinGW64/mingw64-6.3.0/bin/../lib/gcc/x86_64-w64-mingw32/6.3.0/../../../../x86_64-w64-mingw32/lib/../lib32/libmsvcrt.a(dakes01104.o)
 .data          0x000000000040d9a0        0x0 C:/MinGW64/mingw64-6.3.0/bin/../lib/gcc/x86_64-w64-mingw32/6.3.0/../../../../x86_64-w64-mingw32/lib/../lib32/libmsvcrt.a(dakes01100.o)
 .data          0x000000000040d9a0        0x0 C:/MinGW64/mingw64-6.3.0/bin/../lib/gcc/x86_64-w64-mingw32/6.3.0/../../../../x86_64-w64-mingw32/lib/../lib32/libmsvcrt.a(dakes01098.o)
 .data          0x000000000040d9a0        0x0 C:/MinGW64/mingw64-6.3.0/bin/../lib/gcc/x86_64-w64-mingw32/6.3.0/../../../../x86_64-w64-mingw32/lib/../lib32/libmsvcrt.a(dakes01096.o)
 .data          0x000000000040d9a0        0x0 C:/MinGW64/mingw64-6.3.0/bin/../lib/gcc/x86_64-w64-mingw32/6.3.0/../../../../x86_64-w64-mingw32/lib/../lib32/libmsvcrt.a(dakes01091.o)
 .data          0x000000000040d9a0        0x0 C:/MinGW64/mingw64-6.3.0/bin/../lib/gcc/x86_64-w64-mingw32/6.3.0/../../../../x86_64-w64-mingw32/lib/../lib32/libmsvcrt.a(dakes01086.o)
 .data          0x000000000040d9a0        0x0 C:/MinGW64/mingw64-6.3.0/bin/../lib/gcc/x86_64-w64-mingw32/6.3.0/../../../../x86_64-w64-mingw32/lib/../lib32/libmsvcrt.a(dakes01085.o)
 .data          0x000000000040d9a0        0x0 C:/MinGW64/mingw64-6.3.0/bin/../lib/gcc/x86_64-w64-mingw32/6.3.0/../../../../x86_64-w64-mingw32/lib/../lib32/libmsvcrt.a(dakes01082.o)
 .data          0x000000000040d9a0        0x0 C:/MinGW64/mingw64-6.3.0/bin/../lib/gcc/x86_64-w64-mingw32/6.3.0/../../../../x86_64-w64-mingw32/lib/../lib32/libmsvcrt.a(dakes01071.o)
 .data          0x000000000040d9a0        0x0 C:/MinGW64/mingw64-6.3.0/bin/../lib/gcc/x86_64-w64-mingw32/6.3.0/../../../../x86_64-w64-mingw32/lib/../lib32/libmsvcrt.a(dakes01057.o)
 .data          0x000000000040d9a0        0x0 C:/MinGW64/mingw64-6.3.0/bin/../lib/gcc/x86_64-w64-mingw32/6.3.0/../../../../x86_64-w64-mingw32/lib/../lib32/libmsvcrt.a(dakes00844.o)
 .data          0x000000000040d9a0        0x0 C:/MinGW64/mingw64-6.3.0/bin/../lib/gcc/x86_64-w64-mingw32/6.3.0/../../../../x86_64-w64-mingw32/lib/../lib32/libmsvcrt.a(dakes00629.o)
 .data          0x000000000040d9a0        0x0 C:/MinGW64/mingw64-6.3.0/bin/../lib/gcc/x86_64-w64-mingw32/6.3.0/../../../../x86_64-w64-mingw32/lib/../lib32/libmsvcrt.a(dakes00458.o)
 .data          0x000000000040d9a0        0x0 C:/MinGW64/mingw64-6.3.0/bin/../lib/gcc/x86_64-w64-mingw32/6.3.0/../../../../x86_64-w64-mingw32/lib/../lib32/libmsvcrt.a(dakes00356.o)
 .data          0x000000000040d9a0        0x0 C:/MinGW64/mingw64-6.3.0/bin/../lib/gcc/x86_64-w64-mingw32/6.3.0/../../../../x86_64-w64-mingw32/lib/../lib32/libmsvcrt.a(dakes00352.o)
 .data          0x000000000040d9a0        0x0 C:/MinGW64/mingw64-6.3.0/bin/../lib/gcc/x86_64-w64-mingw32/6.3.0/../../../../x86_64-w64-mingw32/lib/../lib32/libmsvcrt.a(dakes00275.o)
 .data          0x000000000040d9a0        0x0 C:/MinGW64/mingw64-6.3.0/bin/../lib/gcc/x86_64-w64-mingw32/6.3.0/../../../../x86_64-w64-mingw32/lib/../lib32/libmsvcrt.a(dakes00222.o)
 .data          0x000000000040d9a0        0x0 C:/MinGW64/mingw64-6.3.0/bin/../lib/gcc/x86_64-w64-mingw32/6.3.0/../../../../x86_64-w64-mingw32/lib/../lib32/libmsvcrt.a(dakes00161.o)
 .data          0x000000000040d9a0        0x0 C:/MinGW64/mingw64-6.3.0/bin/../lib/gcc/x86_64-w64-mingw32/6.3.0/../../../../x86_64-w64-mingw32/lib/../lib32/libmsvcrt.a(dakes00144.o)
 .data          0x000000000040d9a0        0x0 C:/MinGW64/mingw64-6.3.0/bin/../lib/gcc/x86_64-w64-mingw32/6.3.0/../../../../x86_64-w64-mingw32/lib/../lib32/libmsvcrt.a(dakes00123.o)
 .data          0x000000000040d9a0        0x0 C:/MinGW64/mingw64-6.3.0/bin/../lib/gcc/x86_64-w64-mingw32/6.3.0/../../../../x86_64-w64-mingw32/lib/../lib32/libmsvcrt.a(dakes00107.o)
 .data          0x000000000040d9a0        0x0 C:/MinGW64/mingw64-6.3.0/bin/../lib/gcc/x86_64-w64-mingw32/6.3.0/../../../../x86_64-w64-mingw32/lib/../lib32/libmsvcrt.a(dakes00104.o)
 .data          0x000000000040d9a0        0x0 C:/MinGW64/mingw64-6.3.0/bin/../lib/gcc/x86_64-w64-mingw32/6.3.0/../../../../x86_64-w64-mingw32/lib/../lib32/libmsvcrt.a(dakes00068.o)
 .data          0x000000000040d9a0        0x0 C:/MinGW64/mingw64-6.3.0/bin/../lib/gcc/x86_64-w64-mingw32/6.3.0/../../../../x86_64-w64-mingw32/lib/../lib32/libmsvcrt.a(dakes00059.o)
 .data          0x000000000040d9a0        0x0 C:/MinGW64/mingw64-6.3.0/bin/../lib/gcc/x86_64-w64-mingw32/6.3.0/../../../../x86_64-w64-mingw32/lib/../lib32/libmsvcrt.a(dakes00058.o)
 .data          0x000000000040d9a0        0x0 C:/MinGW64/mingw64-6.3.0/bin/../lib/gcc/x86_64-w64-mingw32/6.3.0/../../../../x86_64-w64-mingw32/lib/../lib32/libmsvcrt.a(dakes00055.o)
 .data          0x000000000040d9a0        0x8 C:/MinGW64/mingw64-6.3.0/bin/../lib/gcc/x86_64-w64-mingw32/6.3.0/../../../../x86_64-w64-mingw32/lib/../lib32/libmsvcrt.a(lib32_libmsvcrt_a-invalid_parameter_handler.o)
                0x000000000040d9a0                _imp___get_invalid_parameter_handler
                0x000000000040d9a4                _imp___set_invalid_parameter_handler
 .data          0x000000000040d9a8        0x0 C:/MinGW64/mingw64-6.3.0/bin/../lib/gcc/x86_64-w64-mingw32/6.3.0/../../../../x86_64-w64-mingw32/lib/../lib32/libmsvcrt.a(dakeh.o)
 .data          0x000000000040d9a8        0x0 C:/MinGW64/mingw64-6.3.0/bin/../lib/gcc/x86_64-w64-mingw32/6.3.0/../../../../x86_64-w64-mingw32/lib/../lib32/libmsvcrt.a(daket.o)
 .data          0x000000000040d9a8        0x0 C:/MinGW64/mingw64-6.3.0/bin/../lib/gcc/x86_64-w64-mingw32/6.3.0/../../../../x86_64-w64-mingw32/lib/../lib32/libkernel32.a(dkzds01245.o)
 .data          0x000000000040d9a8        0x0 C:/MinGW64/mingw64-6.3.0/bin/../lib/gcc/x86_64-w64-mingw32/6.3.0/../../../../x86_64-w64-mingw32/lib/../lib32/libkernel32.a(dkzds01242.o)
 .data          0x000000000040d9a8        0x0 C:/MinGW64/mingw64-6.3.0/bin/../lib/gcc/x86_64-w64-mingw32/6.3.0/../../../../x86_64-w64-mingw32/lib/../lib32/libkernel32.a(dkzds01209.o)
 .data          0x000000000040d9a8        0x0 C:/MinGW64/mingw64-6.3.0/bin/../lib/gcc/x86_64-w64-mingw32/6.3.0/../../../../x86_64-w64-mingw32/lib/../lib32/libkernel32.a(dkzds01196.o)
 .data          0x000000000040d9a8        0x0 C:/MinGW64/mingw64-6.3.0/bin/../lib/gcc/x86_64-w64-mingw32/6.3.0/../../../../x86_64-w64-mingw32/lib/../lib32/libkernel32.a(dkzds01189.o)
 .data          0x000000000040d9a8        0x0 C:/MinGW64/mingw64-6.3.0/bin/../lib/gcc/x86_64-w64-mingw32/6.3.0/../../../../x86_64-w64-mingw32/lib/../lib32/libkernel32.a(dkzds01175.o)
 .data          0x000000000040d9a8        0x0 C:/MinGW64/mingw64-6.3.0/bin/../lib/gcc/x86_64-w64-mingw32/6.3.0/../../../../x86_64-w64-mingw32/lib/../lib32/libkernel32.a(dkzds01162.o)
 .data          0x000000000040d9a8        0x0 C:/MinGW64/mingw64-6.3.0/bin/../lib/gcc/x86_64-w64-mingw32/6.3.0/../../../../x86_64-w64-mingw32/lib/../lib32/libkernel32.a(dkzds00949.o)
 .data          0x000000000040d9a8        0x0 C:/MinGW64/mingw64-6.3.0/bin/../lib/gcc/x86_64-w64-mingw32/6.3.0/../../../../x86_64-w64-mingw32/lib/../lib32/libkernel32.a(dkzds00836.o)
 .data          0x000000000040d9a8        0x0 C:/MinGW64/mingw64-6.3.0/bin/../lib/gcc/x86_64-w64-mingw32/6.3.0/../../../../x86_64-w64-mingw32/lib/../lib32/libkernel32.a(dkzds00750.o)
 .data          0x000000000040d9a8        0x0 C:/MinGW64/mingw64-6.3.0/bin/../lib/gcc/x86_64-w64-mingw32/6.3.0/../../../../x86_64-w64-mingw32/lib/../lib32/libkernel32.a(dkzds00666.o)
 .data          0x000000000040d9a8        0x0 C:/MinGW64/mingw64-6.3.0/bin/../lib/gcc/x86_64-w64-mingw32/6.3.0/../../../../x86_64-w64-mingw32/lib/../lib32/libkernel32.a(dkzds00638.o)
 .data          0x000000000040d9a8        0x0 C:/MinGW64/mingw64-6.3.0/bin/../lib/gcc/x86_64-w64-mingw32/6.3.0/../../../../x86_64-w64-mingw32/lib/../lib32/libkernel32.a(dkzds00615.o)
 .data          0x000000000040d9a8        0x0 C:/MinGW64/mingw64-6.3.0/bin/../lib/gcc/x86_64-w64-mingw32/6.3.0/../../../../x86_64-w64-mingw32/lib/../lib32/libkernel32.a(dkzds00584.o)
 .data          0x000000000040d9a8        0x0 C:/MinGW64/mingw64-6.3.0/bin/../lib/gcc/x86_64-w64-mingw32/6.3.0/../../../../x86_64-w64-mingw32/lib/../lib32/libkernel32.a(dkzds00536.o)
 .data          0x000000000040d9a8        0x0 C:/MinGW64/mingw64-6.3.0/bin/../lib/gcc/x86_64-w64-mingw32/6.3.0/../../../../x86_64-w64-mingw32/lib/../lib32/libkernel32.a(dkzds00518.o)
 .data          0x000000000040d9a8        0x0 C:/MinGW64/mingw64-6.3.0/bin/../lib/gcc/x86_64-w64-mingw32/6.3.0/../../../../x86_64-w64-mingw32/lib/../lib32/libkernel32.a(dkzds00460.o)
 .data          0x000000000040d9a8        0x0 C:/MinGW64/mingw64-6.3.0/bin/../lib/gcc/x86_64-w64-mingw32/6.3.0/../../../../x86_64-w64-mingw32/lib/../lib32/libkernel32.a(dkzds00456.o)
 .data          0x000000000040d9a8        0x0 C:/MinGW64/mingw64-6.3.0/bin/../lib/gcc/x86_64-w64-mingw32/6.3.0/../../../../x86_64-w64-mingw32/lib/../lib32/libkernel32.a(dkzds00455.o)
 .data          0x000000000040d9a8        0x0 C:/MinGW64/mingw64-6.3.0/bin/../lib/gcc/x86_64-w64-mingw32/6.3.0/../../../../x86_64-w64-mingw32/lib/../lib32/libkernel32.a(dkzds00242.o)
 .data          0x000000000040d9a8        0x0 C:/MinGW64/mingw64-6.3.0/bin/../lib/gcc/x86_64-w64-mingw32/6.3.0/../../../../x86_64-w64-mingw32/lib/../lib32/libkernel32.a(dkzds00214.o)
 .data          0x000000000040d9a8        0x0 C:/MinGW64/mingw64-6.3.0/bin/../lib/gcc/x86_64-w64-mingw32/6.3.0/../../../../x86_64-w64-mingw32/lib/../lib32/libkernel32.a(dkzdh.o)
 .data          0x000000000040d9a8        0x0 C:/MinGW64/mingw64-6.3.0/bin/../lib/gcc/x86_64-w64-mingw32/6.3.0/../../../../x86_64-w64-mingw32/lib/../lib32/libkernel32.a(dkzdt.o)
 .data          0x000000000040d9a8        0x0 C:/MinGW64/mingw64-6.3.0/bin/../lib/gcc/x86_64-w64-mingw32/6.3.0/32/crtend.o
 *(.data2)
 *(SORT(.data$*))
 .data$__security_cookie
                0x000000000040d9a8        0x4 C:/MinGW64/mingw64-6.3.0/bin/../lib/gcc/x86_64-w64-mingw32/6.3.0/../../../../x86_64-w64-mingw32/lib/../lib32/libmingw32.a(lib32_libmingw32_a-gs_support.o)
                0x000000000040d9a8                __security_cookie
 .data$__security_cookie_complement
                0x000000000040d9ac        0x4 C:/MinGW64/mingw64-6.3.0/bin/../lib/gcc/x86_64-w64-mingw32/6.3.0/../../../../x86_64-w64-mingw32/lib/../lib32/libmingw32.a(lib32_libmingw32_a-gs_support.o)
                0x000000000040d9ac                __security_cookie_complement
 *(.jcr)
 .jcr           0x000000000040d9b0        0x0 C:/MinGW64/mingw64-6.3.0/bin/../lib/gcc/x86_64-w64-mingw32/6.3.0/32/crtbegin.o
 .jcr           0x000000000040d9b0        0x4 C:/MinGW64/mingw64-6.3.0/bin/../lib/gcc/x86_64-w64-mingw32/6.3.0/32/crtend.o
                0x000000000040d9b4                __data_end__ = .
 *(.data_cygwin_nocopy)

.rdata          0x000000000040e000     0x1400
 *(.rdata)
 .rdata         0x000000000040e000       0x24 C:/MinGW64/mingw64-6.3.0/bin/../lib/gcc/x86_64-w64-mingw32/6.3.0/32/crtbegin.o
 .rdata         0x000000000040e024       0xb0 OpenJADE\out\preamp1\x86\obj\app\Baf\Baf\OJSP.o
 .rdata         0x000000000040e0d4       0x44 OpenJADE\out\preamp1\x86\lib\Baf\Baf.lib(BAF.o)
 .rdata         0x000000000040e118       0x1c OpenJADE\out\preamp1\x86\lib\Baf\Baf.lib(Error.o)
 .rdata         0x000000000040e134       0x98 OpenJADE\out\preamp1\x86\lib\Baf\Baf.lib(Framework_Builder.o)
 .rdata         0x000000000040e1cc       0x38 OpenJADE\out\preamp1\x86\lib\Baf\Baf.lib(Heap.o)
 .rdata         0x000000000040e204      0x360 OpenJADE\out\preamp1\x86\lib\Baf\Baf.lib(JFramework.o)
 .rdata         0x000000000040e564       0x3c OpenJADE\out\preamp1\x86\lib\Baf\Baf.lib(Logger.o)
 .rdata         0x000000000040e5a0       0x64 OpenJADE\out\preamp1\x86\lib\Baf\Baf.lib(Module.o)
 *fill*         0x000000000040e604        0xc 
 .rdata         0x000000000040e610       0x30 OpenJADE\out\preamp1\x86\lib\Baf\Baf.lib(Process.o)
 .rdata         0x000000000040e640       0xc0 OpenJADE\out\preamp1\x86\lib\Baf\Baf.lib(BasicAudio_Target.o)
                0x000000000040e640                BasicAudio_Target_M
 .rdata         0x000000000040e700       0x40 OpenJADE\out\preamp1\x86\lib\Baf\Baf.lib(BasicAudio_Target_data.o)
                0x000000000040e700                BasicAudio_Target_ConstB
                0x000000000040e720                BasicAudio_Target_ConstP
 .rdata         0x000000000040e740        0x8 OpenJADE\out\preamp1\x86\lib\Baf\Baf.lib(BasicAudio_Target_SCH_API.o)
 .rdata         0x000000000040e748      0x260 OpenJADE\out\preamp1\x86\lib\Platform\Baf\SIL.lib(oj_platform.o)
 .rdata         0x000000000040e9a8        0x8 C:/MinGW64/mingw64-6.3.0/bin/../lib/gcc/x86_64-w64-mingw32/6.3.0/../../../../x86_64-w64-mingw32/lib/../lib32/libmingw32.a(lib32_libmingw32_a-gs_support.o)
 .rdata         0x000000000040e9b0        0x4 C:/MinGW64/mingw64-6.3.0/bin/../lib/gcc/x86_64-w64-mingw32/6.3.0/../../../../x86_64-w64-mingw32/lib/../lib32/libmingw32.a(lib32_libmingw32_a-tlssup.o)
                0x000000000040e9b0                __dyn_tls_init_callback
 .rdata         0x000000000040e9b4      0x134 C:/MinGW64/mingw64-6.3.0/bin/../lib/gcc/x86_64-w64-mingw32/6.3.0/../../../../x86_64-w64-mingw32/lib/../lib32/libmingw32.a(lib32_libmingw32_a-merr.o)
 .rdata         0x000000000040eae8       0xf8 C:/MinGW64/mingw64-6.3.0/bin/../lib/gcc/x86_64-w64-mingw32/6.3.0/../../../../x86_64-w64-mingw32/lib/../lib32/libmingw32.a(lib32_libmingw32_a-pseudo-reloc.o)
 .rdata         0x000000000040ebe0        0x8 C:/MinGW64/mingw64-6.3.0/bin/../lib/gcc/x86_64-w64-mingw32/6.3.0/../../../../x86_64-w64-mingw32/lib/../lib32/libmingwex.a(lib32_libmingwex_a-roundf.o)
 .rdata         0x000000000040ebe8       0x10 C:/MinGW64/mingw64-6.3.0/bin/../lib/gcc/x86_64-w64-mingw32/6.3.0/../../../../x86_64-w64-mingw32/lib/../lib32/libmingwex.a(lib32_libmingwex_a-sqrtf.o)
 .rdata         0x000000000040ebf8       0x18 C:/MinGW64/mingw64-6.3.0/bin/../lib/gcc/x86_64-w64-mingw32/6.3.0/../../../../x86_64-w64-mingw32/lib/../lib32/libmingwex.a(lib32_libmingwex_a-exp.o)
 .rdata         0x000000000040ec10       0x10 C:/MinGW64/mingw64-6.3.0/bin/../lib/gcc/x86_64-w64-mingw32/6.3.0/../../../../x86_64-w64-mingw32/lib/../lib32/libmingwex.a(lib32_libmingwex_a-log.o)
 .rdata         0x000000000040ec20       0x30 C:/MinGW64/mingw64-6.3.0/bin/../lib/gcc/x86_64-w64-mingw32/6.3.0/../../../../x86_64-w64-mingw32/lib/../lib32/libmingwex.a(lib32_libmingwex_a-pow.o)
 .rdata         0x000000000040ec50       0x18 C:/MinGW64/mingw64-6.3.0/bin/../lib/gcc/x86_64-w64-mingw32/6.3.0/../../../../x86_64-w64-mingw32/lib/../lib32/libmingwex.a(lib32_libmingwex_a-powi.o)
 *(SORT(.rdata$*))
 .rdata$zzz     0x000000000040ec68       0x40 OpenJADE\out\preamp1\x86\obj\app\Baf\Baf\OJSP.o
 .rdata$zzz     0x000000000040eca8       0x40 OpenJADE\out\preamp1\x86\obj\app\Baf\Integration_Example.o
 .rdata$zzz     0x000000000040ece8       0x40 OpenJADE\out\preamp1\x86\lib\Baf\Baf.lib(BAF.o)
 .rdata$zzz     0x000000000040ed28       0x40 OpenJADE\out\preamp1\x86\lib\Baf\Baf.lib(Error.o)
 .rdata$zzz     0x000000000040ed68       0x40 OpenJADE\out\preamp1\x86\lib\Baf\Baf.lib(Framework_Builder.o)
 .rdata$zzz     0x000000000040eda8       0x40 OpenJADE\out\preamp1\x86\lib\Baf\Baf.lib(Heap.o)
 .rdata$zzz     0x000000000040ede8       0x40 OpenJADE\out\preamp1\x86\lib\Baf\Baf.lib(JFramework.o)
 .rdata$zzz     0x000000000040ee28       0x40 OpenJADE\out\preamp1\x86\lib\Baf\Baf.lib(JModule_Context.o)
 .rdata$zzz     0x000000000040ee68       0x40 OpenJADE\out\preamp1\x86\lib\Baf\Baf.lib(Logger.o)
 .rdata$zzz     0x000000000040eea8       0x40 OpenJADE\out\preamp1\x86\lib\Baf\Baf.lib(Module.o)
 .rdata$zzz     0x000000000040eee8       0x40 OpenJADE\out\preamp1\x86\lib\Baf\Baf.lib(Port.o)
 .rdata$zzz     0x000000000040ef28       0x40 OpenJADE\out\preamp1\x86\lib\Baf\Baf.lib(Ports.o)
 .rdata$zzz     0x000000000040ef68       0x40 OpenJADE\out\preamp1\x86\lib\Baf\Baf.lib(Process.o)
 .rdata$zzz     0x000000000040efa8       0x40 OpenJADE\out\preamp1\x86\lib\Baf\Baf.lib(Process_Context.o)
 .rdata$zzz     0x000000000040efe8       0x40 OpenJADE\out\preamp1\x86\lib\Baf\Baf.lib(Audio_Graph.o)
 .rdata$zzz     0x000000000040f028       0x40 OpenJADE\out\preamp1\x86\lib\Baf\Baf.lib(BasicAudio_Target.o)
 .rdata$zzz     0x000000000040f068       0x40 OpenJADE\out\preamp1\x86\lib\Baf\Baf.lib(BasicAudio_Target_BasicAudio0_TOP.o)
 .rdata$zzz     0x000000000040f0a8       0x40 OpenJADE\out\preamp1\x86\lib\Baf\Baf.lib(BasicAudio_Target_data.o)
 .rdata$zzz     0x000000000040f0e8       0x40 OpenJADE\out\preamp1\x86\lib\Baf\Baf.lib(BasicAudio_Target_StructStaticInit.o)
 .rdata$zzz     0x000000000040f128       0x40 OpenJADE\out\preamp1\x86\lib\Baf\Baf.lib(BasicAudio_Target_TalariaAPI.o)
 .rdata$zzz     0x000000000040f168       0x40 OpenJADE\out\preamp1\x86\lib\Baf\Baf.lib(BasicAudio_Target_TOP_Access.o)
 .rdata$zzz     0x000000000040f1a8       0x40 OpenJADE\out\preamp1\x86\lib\Baf\Baf.lib(BasicAudio_Target_RTC_NTF.o)
 .rdata$zzz     0x000000000040f1e8       0x40 OpenJADE\out\preamp1\x86\lib\Baf\Baf.lib(BasicAudio_Target_RTC_REQ_RSP.o)
 .rdata$zzz     0x000000000040f228       0x40 OpenJADE\out\preamp1\x86\lib\Baf\Baf.lib(BasicAudio_Target_SCH_API.o)
 .rdata$zzz     0x000000000040f268       0x40 OpenJADE\out\preamp1\x86\lib\Platform\Baf\SIL.lib(oj_platform.o)
                0x000000000040f2a8                __rt_psrelocs_start = .
 *(.rdata_runtime_pseudo_reloc)
                0x000000000040f2a8                __rt_psrelocs_end = .
                0x0000000000000000                __rt_psrelocs_size = (__rt_psrelocs_end - __rt_psrelocs_start)
                0x000000000040f2a8                ___RUNTIME_PSEUDO_RELOC_LIST_END__ = .
                0x000000000040f2a8                __RUNTIME_PSEUDO_RELOC_LIST_END__ = .
                0x000000000040f2a8                ___RUNTIME_PSEUDO_RELOC_LIST__ = (. - __rt_psrelocs_size)
                0x000000000040f2a8                __RUNTIME_PSEUDO_RELOC_LIST__ = (. - __rt_psrelocs_size)

.eh_frame
 *(.eh_frame*)

.pdata
 *(.pdata)

.bss            0x0000000000410000     0xa67c
                0x0000000000410000                __bss_start__ = .
 *(.bss)
 .bss           0x0000000000410000       0x1c C:/MinGW64/mingw64-6.3.0/bin/../lib/gcc/x86_64-w64-mingw32/6.3.0/../../../../x86_64-w64-mingw32/lib/../lib32/crt2.o
 .bss           0x000000000041001c        0x0 C:/MinGW64/mingw64-6.3.0/bin/../lib/gcc/x86_64-w64-mingw32/6.3.0/32/crtbegin.o
 .bss           0x000000000041001c        0x4 OpenJADE\out\preamp1\x86\obj\app\Baf\Baf\OJSP.o
                0x000000000041001c                BAF_Callback_clock_cnt
 .bss           0x0000000000410020        0x0 OpenJADE\out\preamp1\x86\obj\app\Baf\Integration_Example.o
 .bss           0x0000000000410020        0x0 OpenJADE\out\preamp1\x86\lib\Baf\Baf.lib(BAF.o)
 .bss           0x0000000000410020        0x0 OpenJADE\out\preamp1\x86\lib\Baf\Baf.lib(Error.o)
 .bss           0x0000000000410020        0x0 OpenJADE\out\preamp1\x86\lib\Baf\Baf.lib(Framework_Builder.o)
 .bss           0x0000000000410020        0x0 OpenJADE\out\preamp1\x86\lib\Baf\Baf.lib(Heap.o)
 .bss           0x0000000000410020       0x10 OpenJADE\out\preamp1\x86\lib\Baf\Baf.lib(JFramework.o)
 .bss           0x0000000000410030        0x0 OpenJADE\out\preamp1\x86\lib\Baf\Baf.lib(JModule_Context.o)
 .bss           0x0000000000410030        0x0 OpenJADE\out\preamp1\x86\lib\Baf\Baf.lib(Logger.o)
 .bss           0x0000000000410030        0x0 OpenJADE\out\preamp1\x86\lib\Baf\Baf.lib(Module.o)
 .bss           0x0000000000410030        0x0 OpenJADE\out\preamp1\x86\lib\Baf\Baf.lib(Port.o)
 .bss           0x0000000000410030        0x0 OpenJADE\out\preamp1\x86\lib\Baf\Baf.lib(Ports.o)
 .bss           0x0000000000410030        0x0 OpenJADE\out\preamp1\x86\lib\Baf\Baf.lib(Process.o)
 .bss           0x0000000000410030        0x0 OpenJADE\out\preamp1\x86\lib\Baf\Baf.lib(Process_Context.o)
 .bss           0x0000000000410030        0x8 OpenJADE\out\preamp1\x86\lib\Baf\Baf.lib(Audio_Graph.o)
 .bss           0x0000000000410038        0x4 OpenJADE\out\preamp1\x86\lib\Baf\Baf.lib(BasicAudio_Target.o)
 .bss           0x000000000041003c        0x0 OpenJADE\out\preamp1\x86\lib\Baf\Baf.lib(BasicAudio_Target_BasicAudio0_TOP.o)
 .bss           0x000000000041003c        0x0 OpenJADE\out\preamp1\x86\lib\Baf\Baf.lib(BasicAudio_Target_data.o)
 .bss           0x000000000041003c       0x40 OpenJADE\out\preamp1\x86\lib\Baf\Baf.lib(BasicAudio_Target_StructStaticInit.o)
                0x000000000041003c                BasicAudio_TargetBasicAudioBalanceSetRtcOut
                0x0000000000410050                BasicAudio_TargetBasicAudioMuteSetRtcOut
                0x0000000000410064                BasicAudio_TargetBasicAudioVolumeSetRtcOut
 .bss           0x000000000041007c        0x0 OpenJADE\out\preamp1\x86\lib\Baf\Baf.lib(BasicAudio_Target_TalariaAPI.o)
 .bss           0x000000000041007c        0x0 OpenJADE\out\preamp1\x86\lib\Baf\Baf.lib(BasicAudio_Target_TOP_Access.o)
 .bss           0x000000000041007c        0x4 OpenJADE\out\preamp1\x86\lib\Baf\Baf.lib(BasicAudio_Target_RTC_NTF.o)
 .bss           0x0000000000410080        0x0 OpenJADE\out\preamp1\x86\lib\Baf\Baf.lib(BasicAudio_Target_RTC_REQ_RSP.o)
 .bss           0x0000000000410080        0x0 OpenJADE\out\preamp1\x86\lib\Baf\Baf.lib(BasicAudio_Target_SCH_API.o)
 .bss           0x0000000000410080        0x0 OpenJADE\out\preamp1\x86\lib\Platform\Baf\SIL.lib(oj_platform.o)
 .bss           0x0000000000410080        0x0 C:/MinGW64/mingw64-6.3.0/bin/../lib/gcc/x86_64-w64-mingw32/6.3.0/../../../../x86_64-w64-mingw32/lib/../lib32/libmingw32.a(lib32_libmingw32_a-atonexit.o)
 .bss           0x0000000000410080        0x4 C:/MinGW64/mingw64-6.3.0/bin/../lib/gcc/x86_64-w64-mingw32/6.3.0/../../../../x86_64-w64-mingw32/lib/../lib32/libmingw32.a(lib32_libmingw32_a-gccmain.o)
 .bss           0x0000000000410084        0x0 C:/MinGW64/mingw64-6.3.0/bin/../lib/gcc/x86_64-w64-mingw32/6.3.0/../../../../x86_64-w64-mingw32/lib/../lib32/libmingw32.a(lib32_libmingw32_a-natstart.o)
 .bss           0x0000000000410084        0x0 C:/MinGW64/mingw64-6.3.0/bin/../lib/gcc/x86_64-w64-mingw32/6.3.0/../../../../x86_64-w64-mingw32/lib/../lib32/libmingw32.a(lib32_libmingw32_a-wildcard.o)
 .bss           0x0000000000410084        0x4 C:/MinGW64/mingw64-6.3.0/bin/../lib/gcc/x86_64-w64-mingw32/6.3.0/../../../../x86_64-w64-mingw32/lib/../lib32/libmingw32.a(lib32_libmingw32_a-charmax.o)
                0x0000000000410084                mingw_initcharmax
 .bss           0x0000000000410088        0x0 C:/MinGW64/mingw64-6.3.0/bin/../lib/gcc/x86_64-w64-mingw32/6.3.0/../../../../x86_64-w64-mingw32/lib/../lib32/libmingw32.a(lib32_libmingw32_a-dllargv.o)
 *fill*         0x0000000000410088       0x18 
 .bss           0x00000000004100a0      0x340 C:/MinGW64/mingw64-6.3.0/bin/../lib/gcc/x86_64-w64-mingw32/6.3.0/../../../../x86_64-w64-mingw32/lib/../lib32/libmingw32.a(lib32_libmingw32_a-gs_support.o)
 .bss           0x00000000004103e0        0x4 C:/MinGW64/mingw64-6.3.0/bin/../lib/gcc/x86_64-w64-mingw32/6.3.0/../../../../x86_64-w64-mingw32/lib/../lib32/libmingw32.a(lib32_libmingw32_a-_newmode.o)
                0x00000000004103e0                _newmode
 .bss           0x00000000004103e4       0x10 C:/MinGW64/mingw64-6.3.0/bin/../lib/gcc/x86_64-w64-mingw32/6.3.0/../../../../x86_64-w64-mingw32/lib/../lib32/libmingw32.a(lib32_libmingw32_a-tlssup.o)
                0x00000000004103e4                mingw_initltssuo_force
                0x00000000004103e8                mingw_initltsdyn_force
                0x00000000004103ec                mingw_initltsdrot_force
                0x00000000004103f0                _tls_index
 .bss           0x00000000004103f4        0x0 C:/MinGW64/mingw64-6.3.0/bin/../lib/gcc/x86_64-w64-mingw32/6.3.0/../../../../x86_64-w64-mingw32/lib/../lib32/libmingw32.a(lib32_libmingw32_a-cinitexe.o)
 .bss           0x00000000004103f4        0x4 C:/MinGW64/mingw64-6.3.0/bin/../lib/gcc/x86_64-w64-mingw32/6.3.0/../../../../x86_64-w64-mingw32/lib/../lib32/libmingw32.a(lib32_libmingw32_a-merr.o)
 .bss           0x00000000004103f8        0x0 C:/MinGW64/mingw64-6.3.0/bin/../lib/gcc/x86_64-w64-mingw32/6.3.0/../../../../x86_64-w64-mingw32/lib/../lib32/libmingw32.a(lib32_libmingw32_a-CRT_fp10.o)
 .bss           0x00000000004103f8        0x4 C:/MinGW64/mingw64-6.3.0/bin/../lib/gcc/x86_64-w64-mingw32/6.3.0/../../../../x86_64-w64-mingw32/lib/../lib32/libmingw32.a(lib32_libmingw32_a-mingw_helpers.o)
                0x00000000004103f8                mingw_app_type
 .bss           0x00000000004103fc        0xc C:/MinGW64/mingw64-6.3.0/bin/../lib/gcc/x86_64-w64-mingw32/6.3.0/../../../../x86_64-w64-mingw32/lib/../lib32/libmingw32.a(lib32_libmingw32_a-pseudo-reloc.o)
 .bss           0x0000000000410408        0x4 C:/MinGW64/mingw64-6.3.0/bin/../lib/gcc/x86_64-w64-mingw32/6.3.0/../../../../x86_64-w64-mingw32/lib/../lib32/libmingw32.a(lib32_libmingw32_a-xtxtmode.o)
                0x0000000000410408                _fmode
 .bss           0x000000000041040c        0x4 C:/MinGW64/mingw64-6.3.0/bin/../lib/gcc/x86_64-w64-mingw32/6.3.0/../../../../x86_64-w64-mingw32/lib/../lib32/libmingw32.a(lib32_libmingw32_a-crt_handler.o)
                0x000000000041040c                __mingw_oldexcpt_handler
 .bss           0x0000000000410410       0x20 C:/MinGW64/mingw64-6.3.0/bin/../lib/gcc/x86_64-w64-mingw32/6.3.0/../../../../x86_64-w64-mingw32/lib/../lib32/libmingw32.a(lib32_libmingw32_a-tlsthrd.o)
 .bss           0x0000000000410430        0x0 C:/MinGW64/mingw64-6.3.0/bin/../lib/gcc/x86_64-w64-mingw32/6.3.0/../../../../x86_64-w64-mingw32/lib/../lib32/libmingw32.a(lib32_libmingw32_a-tlsmcrt.o)
 .bss           0x0000000000410430        0x4 C:/MinGW64/mingw64-6.3.0/bin/../lib/gcc/x86_64-w64-mingw32/6.3.0/../../../../x86_64-w64-mingw32/lib/../lib32/libmingw32.a(lib32_libmingw32_a-pseudo-reloc-list.o)
 .bss           0x0000000000410434        0x0 C:/MinGW64/mingw64-6.3.0/bin/../lib/gcc/x86_64-w64-mingw32/6.3.0/../../../../x86_64-w64-mingw32/lib/../lib32/libmingw32.a(lib32_libmingw32_a-pesect.o)
 .bss           0x0000000000410434        0x0 C:/MinGW64/mingw64-6.3.0/bin/../lib/gcc/x86_64-w64-mingw32/6.3.0/32/libgcc.a(_chkstk_ms.o)
 .bss           0x0000000000410434        0x0 C:/MinGW64/mingw64-6.3.0/bin/../lib/gcc/x86_64-w64-mingw32/6.3.0/32/libgcc.a(_ctors.o)
 .bss           0x0000000000410434        0x0 C:/MinGW64/mingw64-6.3.0/bin/../lib/gcc/x86_64-w64-mingw32/6.3.0/../../../../x86_64-w64-mingw32/lib/../lib32/libmingwex.a(lib32_libmingwex_a-ceilf.o)
 .bss           0x0000000000410434        0x0 C:/MinGW64/mingw64-6.3.0/bin/../lib/gcc/x86_64-w64-mingw32/6.3.0/../../../../x86_64-w64-mingw32/lib/../lib32/libmingwex.a(lib32_libmingwex_a-expf.o)
 .bss           0x0000000000410434        0x0 C:/MinGW64/mingw64-6.3.0/bin/../lib/gcc/x86_64-w64-mingw32/6.3.0/../../../../x86_64-w64-mingw32/lib/../lib32/libmingwex.a(lib32_libmingwex_a-fmaxf.o)
 .bss           0x0000000000410434        0x0 C:/MinGW64/mingw64-6.3.0/bin/../lib/gcc/x86_64-w64-mingw32/6.3.0/../../../../x86_64-w64-mingw32/lib/../lib32/libmingwex.a(lib32_libmingwex_a-fminf.o)
 .bss           0x0000000000410434        0x0 C:/MinGW64/mingw64-6.3.0/bin/../lib/gcc/x86_64-w64-mingw32/6.3.0/../../../../x86_64-w64-mingw32/lib/../lib32/libmingwex.a(lib32_libmingwex_a-log10f.o)
 .bss           0x0000000000410434        0x0 C:/MinGW64/mingw64-6.3.0/bin/../lib/gcc/x86_64-w64-mingw32/6.3.0/../../../../x86_64-w64-mingw32/lib/../lib32/libmingwex.a(lib32_libmingwex_a-logf.o)
 .bss           0x0000000000410434        0x0 C:/MinGW64/mingw64-6.3.0/bin/../lib/gcc/x86_64-w64-mingw32/6.3.0/../../../../x86_64-w64-mingw32/lib/../lib32/libmingwex.a(lib32_libmingwex_a-powf.o)
 .bss           0x0000000000410434        0x0 C:/MinGW64/mingw64-6.3.0/bin/../lib/gcc/x86_64-w64-mingw32/6.3.0/../../../../x86_64-w64-mingw32/lib/../lib32/libmingwex.a(lib32_libmingwex_a-roundf.o)
 .bss           0x0000000000410434        0x0 C:/MinGW64/mingw64-6.3.0/bin/../lib/gcc/x86_64-w64-mingw32/6.3.0/../../../../x86_64-w64-mingw32/lib/../lib32/libmingwex.a(lib32_libmingwex_a-sqrtf.o)
 .bss           0x0000000000410434        0x0 C:/MinGW64/mingw64-6.3.0/bin/../lib/gcc/x86_64-w64-mingw32/6.3.0/../../../../x86_64-w64-mingw32/lib/../lib32/libmingwex.a(lib32_libmingwex_a-mingw_matherr.o)
 .bss           0x0000000000410434        0x0 C:/MinGW64/mingw64-6.3.0/bin/../lib/gcc/x86_64-w64-mingw32/6.3.0/../../../../x86_64-w64-mingw32/lib/../lib32/libmingwex.a(lib32_libmingwex_a-exp.o)
 .bss           0x0000000000410434        0x0 C:/MinGW64/mingw64-6.3.0/bin/../lib/gcc/x86_64-w64-mingw32/6.3.0/../../../../x86_64-w64-mingw32/lib/../lib32/libmingwex.a(lib32_libmingwex_a-log.o)
 .bss           0x0000000000410434        0x0 C:/MinGW64/mingw64-6.3.0/bin/../lib/gcc/x86_64-w64-mingw32/6.3.0/../../../../x86_64-w64-mingw32/lib/../lib32/libmingwex.a(lib32_libmingwex_a-pow.o)
 .bss           0x0000000000410434        0x0 C:/MinGW64/mingw64-6.3.0/bin/../lib/gcc/x86_64-w64-mingw32/6.3.0/../../../../x86_64-w64-mingw32/lib/../lib32/libmingwex.a(lib32_libmingwex_a-powi.o)
 .bss           0x0000000000410434        0x0 C:/MinGW64/mingw64-6.3.0/bin/../lib/gcc/x86_64-w64-mingw32/6.3.0/../../../../x86_64-w64-mingw32/lib/../lib32/libmingwex.a(lib32_libmingwex_a-exp2l.o)
 .bss           0x0000000000410434        0x0 C:/MinGW64/mingw64-6.3.0/bin/../lib/gcc/x86_64-w64-mingw32/6.3.0/../../../../x86_64-w64-mingw32/lib/../lib32/libmingwex.a(lib32_libmingwex_a-internal_logl.o)
 .bss           0x0000000000410434        0x0 C:/MinGW64/mingw64-6.3.0/bin/../lib/gcc/x86_64-w64-mingw32/6.3.0/../../../../x86_64-w64-mingw32/lib/../lib32/libmingwex.a(lib32_libmingwex_a-ldexp.o)
 .bss           0x0000000000410434        0x0 C:/MinGW64/mingw64-6.3.0/bin/../lib/gcc/x86_64-w64-mingw32/6.3.0/../../../../x86_64-w64-mingw32/lib/../lib32/libmingwex.a(lib32_libmingwex_a-log2l.o)
 .bss           0x0000000000410434        0x0 C:/MinGW64/mingw64-6.3.0/bin/../lib/gcc/x86_64-w64-mingw32/6.3.0/../../../../x86_64-w64-mingw32/lib/../lib32/libmsvcrt.a(dakes01258.o)
 .bss           0x0000000000410434        0x0 C:/MinGW64/mingw64-6.3.0/bin/../lib/gcc/x86_64-w64-mingw32/6.3.0/../../../../x86_64-w64-mingw32/lib/../lib32/libmsvcrt.a(dakes01254.o)
 .bss           0x0000000000410434        0x0 C:/MinGW64/mingw64-6.3.0/bin/../lib/gcc/x86_64-w64-mingw32/6.3.0/../../../../x86_64-w64-mingw32/lib/../lib32/libmsvcrt.a(dakes01221.o)
 .bss           0x0000000000410434        0x0 C:/MinGW64/mingw64-6.3.0/bin/../lib/gcc/x86_64-w64-mingw32/6.3.0/../../../../x86_64-w64-mingw32/lib/../lib32/libmsvcrt.a(dakes01218.o)
 .bss           0x0000000000410434        0x0 C:/MinGW64/mingw64-6.3.0/bin/../lib/gcc/x86_64-w64-mingw32/6.3.0/../../../../x86_64-w64-mingw32/lib/../lib32/libmsvcrt.a(dakes01200.o)
 .bss           0x0000000000410434        0x0 C:/MinGW64/mingw64-6.3.0/bin/../lib/gcc/x86_64-w64-mingw32/6.3.0/../../../../x86_64-w64-mingw32/lib/../lib32/libmsvcrt.a(dakes01175.o)
 .bss           0x0000000000410434        0x0 C:/MinGW64/mingw64-6.3.0/bin/../lib/gcc/x86_64-w64-mingw32/6.3.0/../../../../x86_64-w64-mingw32/lib/../lib32/libmsvcrt.a(dakes01172.o)
 .bss           0x0000000000410434        0x0 C:/MinGW64/mingw64-6.3.0/bin/../lib/gcc/x86_64-w64-mingw32/6.3.0/../../../../x86_64-w64-mingw32/lib/../lib32/libmsvcrt.a(dakes01164.o)
 .bss           0x0000000000410434        0x0 C:/MinGW64/mingw64-6.3.0/bin/../lib/gcc/x86_64-w64-mingw32/6.3.0/../../../../x86_64-w64-mingw32/lib/../lib32/libmsvcrt.a(dakes01162.o)
 .bss           0x0000000000410434        0x0 C:/MinGW64/mingw64-6.3.0/bin/../lib/gcc/x86_64-w64-mingw32/6.3.0/../../../../x86_64-w64-mingw32/lib/../lib32/libmsvcrt.a(dakes01117.o)
 .bss           0x0000000000410434        0x0 C:/MinGW64/mingw64-6.3.0/bin/../lib/gcc/x86_64-w64-mingw32/6.3.0/../../../../x86_64-w64-mingw32/lib/../lib32/libmsvcrt.a(dakes01105.o)
 .bss           0x0000000000410434        0x0 C:/MinGW64/mingw64-6.3.0/bin/../lib/gcc/x86_64-w64-mingw32/6.3.0/../../../../x86_64-w64-mingw32/lib/../lib32/libmsvcrt.a(dakes01104.o)
 .bss           0x0000000000410434        0x0 C:/MinGW64/mingw64-6.3.0/bin/../lib/gcc/x86_64-w64-mingw32/6.3.0/../../../../x86_64-w64-mingw32/lib/../lib32/libmsvcrt.a(dakes01100.o)
 .bss           0x0000000000410434        0x0 C:/MinGW64/mingw64-6.3.0/bin/../lib/gcc/x86_64-w64-mingw32/6.3.0/../../../../x86_64-w64-mingw32/lib/../lib32/libmsvcrt.a(dakes01098.o)
 .bss           0x0000000000410434        0x0 C:/MinGW64/mingw64-6.3.0/bin/../lib/gcc/x86_64-w64-mingw32/6.3.0/../../../../x86_64-w64-mingw32/lib/../lib32/libmsvcrt.a(dakes01096.o)
 .bss           0x0000000000410434        0x0 C:/MinGW64/mingw64-6.3.0/bin/../lib/gcc/x86_64-w64-mingw32/6.3.0/../../../../x86_64-w64-mingw32/lib/../lib32/libmsvcrt.a(dakes01091.o)
 .bss           0x0000000000410434        0x0 C:/MinGW64/mingw64-6.3.0/bin/../lib/gcc/x86_64-w64-mingw32/6.3.0/../../../../x86_64-w64-mingw32/lib/../lib32/libmsvcrt.a(dakes01086.o)
 .bss           0x0000000000410434        0x0 C:/MinGW64/mingw64-6.3.0/bin/../lib/gcc/x86_64-w64-mingw32/6.3.0/../../../../x86_64-w64-mingw32/lib/../lib32/libmsvcrt.a(dakes01085.o)
 .bss           0x0000000000410434        0x0 C:/MinGW64/mingw64-6.3.0/bin/../lib/gcc/x86_64-w64-mingw32/6.3.0/../../../../x86_64-w64-mingw32/lib/../lib32/libmsvcrt.a(dakes01082.o)
 .bss           0x0000000000410434        0x0 C:/MinGW64/mingw64-6.3.0/bin/../lib/gcc/x86_64-w64-mingw32/6.3.0/../../../../x86_64-w64-mingw32/lib/../lib32/libmsvcrt.a(dakes01071.o)
 .bss           0x0000000000410434        0x0 C:/MinGW64/mingw64-6.3.0/bin/../lib/gcc/x86_64-w64-mingw32/6.3.0/../../../../x86_64-w64-mingw32/lib/../lib32/libmsvcrt.a(dakes01057.o)
 .bss           0x0000000000410434        0x0 C:/MinGW64/mingw64-6.3.0/bin/../lib/gcc/x86_64-w64-mingw32/6.3.0/../../../../x86_64-w64-mingw32/lib/../lib32/libmsvcrt.a(dakes00844.o)
 .bss           0x0000000000410434        0x0 C:/MinGW64/mingw64-6.3.0/bin/../lib/gcc/x86_64-w64-mingw32/6.3.0/../../../../x86_64-w64-mingw32/lib/../lib32/libmsvcrt.a(dakes00629.o)
 .bss           0x0000000000410434        0x0 C:/MinGW64/mingw64-6.3.0/bin/../lib/gcc/x86_64-w64-mingw32/6.3.0/../../../../x86_64-w64-mingw32/lib/../lib32/libmsvcrt.a(dakes00458.o)
 .bss           0x0000000000410434        0x0 C:/MinGW64/mingw64-6.3.0/bin/../lib/gcc/x86_64-w64-mingw32/6.3.0/../../../../x86_64-w64-mingw32/lib/../lib32/libmsvcrt.a(dakes00356.o)
 .bss           0x0000000000410434        0x0 C:/MinGW64/mingw64-6.3.0/bin/../lib/gcc/x86_64-w64-mingw32/6.3.0/../../../../x86_64-w64-mingw32/lib/../lib32/libmsvcrt.a(dakes00352.o)
 .bss           0x0000000000410434        0x0 C:/MinGW64/mingw64-6.3.0/bin/../lib/gcc/x86_64-w64-mingw32/6.3.0/../../../../x86_64-w64-mingw32/lib/../lib32/libmsvcrt.a(dakes00275.o)
 .bss           0x0000000000410434        0x0 C:/MinGW64/mingw64-6.3.0/bin/../lib/gcc/x86_64-w64-mingw32/6.3.0/../../../../x86_64-w64-mingw32/lib/../lib32/libmsvcrt.a(dakes00222.o)
 .bss           0x0000000000410434        0x0 C:/MinGW64/mingw64-6.3.0/bin/../lib/gcc/x86_64-w64-mingw32/6.3.0/../../../../x86_64-w64-mingw32/lib/../lib32/libmsvcrt.a(dakes00161.o)
 .bss           0x0000000000410434        0x0 C:/MinGW64/mingw64-6.3.0/bin/../lib/gcc/x86_64-w64-mingw32/6.3.0/../../../../x86_64-w64-mingw32/lib/../lib32/libmsvcrt.a(dakes00144.o)
 .bss           0x0000000000410434        0x0 C:/MinGW64/mingw64-6.3.0/bin/../lib/gcc/x86_64-w64-mingw32/6.3.0/../../../../x86_64-w64-mingw32/lib/../lib32/libmsvcrt.a(dakes00123.o)
 .bss           0x0000000000410434        0x0 C:/MinGW64/mingw64-6.3.0/bin/../lib/gcc/x86_64-w64-mingw32/6.3.0/../../../../x86_64-w64-mingw32/lib/../lib32/libmsvcrt.a(dakes00107.o)
 .bss           0x0000000000410434        0x0 C:/MinGW64/mingw64-6.3.0/bin/../lib/gcc/x86_64-w64-mingw32/6.3.0/../../../../x86_64-w64-mingw32/lib/../lib32/libmsvcrt.a(dakes00104.o)
 .bss           0x0000000000410434        0x0 C:/MinGW64/mingw64-6.3.0/bin/../lib/gcc/x86_64-w64-mingw32/6.3.0/../../../../x86_64-w64-mingw32/lib/../lib32/libmsvcrt.a(dakes00068.o)
 .bss           0x0000000000410434        0x0 C:/MinGW64/mingw64-6.3.0/bin/../lib/gcc/x86_64-w64-mingw32/6.3.0/../../../../x86_64-w64-mingw32/lib/../lib32/libmsvcrt.a(dakes00059.o)
 .bss           0x0000000000410434        0x0 C:/MinGW64/mingw64-6.3.0/bin/../lib/gcc/x86_64-w64-mingw32/6.3.0/../../../../x86_64-w64-mingw32/lib/../lib32/libmsvcrt.a(dakes00058.o)
 .bss           0x0000000000410434        0x0 C:/MinGW64/mingw64-6.3.0/bin/../lib/gcc/x86_64-w64-mingw32/6.3.0/../../../../x86_64-w64-mingw32/lib/../lib32/libmsvcrt.a(dakes00055.o)
 .bss           0x0000000000410434        0x4 C:/MinGW64/mingw64-6.3.0/bin/../lib/gcc/x86_64-w64-mingw32/6.3.0/../../../../x86_64-w64-mingw32/lib/../lib32/libmsvcrt.a(lib32_libmsvcrt_a-invalid_parameter_handler.o)
 .bss           0x0000000000410438        0x0 C:/MinGW64/mingw64-6.3.0/bin/../lib/gcc/x86_64-w64-mingw32/6.3.0/../../../../x86_64-w64-mingw32/lib/../lib32/libmsvcrt.a(dakeh.o)
 .bss           0x0000000000410438        0x0 C:/MinGW64/mingw64-6.3.0/bin/../lib/gcc/x86_64-w64-mingw32/6.3.0/../../../../x86_64-w64-mingw32/lib/../lib32/libmsvcrt.a(daket.o)
 .bss           0x0000000000410438        0x0 C:/MinGW64/mingw64-6.3.0/bin/../lib/gcc/x86_64-w64-mingw32/6.3.0/../../../../x86_64-w64-mingw32/lib/../lib32/libkernel32.a(dkzds01245.o)
 .bss           0x0000000000410438        0x0 C:/MinGW64/mingw64-6.3.0/bin/../lib/gcc/x86_64-w64-mingw32/6.3.0/../../../../x86_64-w64-mingw32/lib/../lib32/libkernel32.a(dkzds01242.o)
 .bss           0x0000000000410438        0x0 C:/MinGW64/mingw64-6.3.0/bin/../lib/gcc/x86_64-w64-mingw32/6.3.0/../../../../x86_64-w64-mingw32/lib/../lib32/libkernel32.a(dkzds01209.o)
 .bss           0x0000000000410438        0x0 C:/MinGW64/mingw64-6.3.0/bin/../lib/gcc/x86_64-w64-mingw32/6.3.0/../../../../x86_64-w64-mingw32/lib/../lib32/libkernel32.a(dkzds01196.o)
 .bss           0x0000000000410438        0x0 C:/MinGW64/mingw64-6.3.0/bin/../lib/gcc/x86_64-w64-mingw32/6.3.0/../../../../x86_64-w64-mingw32/lib/../lib32/libkernel32.a(dkzds01189.o)
 .bss           0x0000000000410438        0x0 C:/MinGW64/mingw64-6.3.0/bin/../lib/gcc/x86_64-w64-mingw32/6.3.0/../../../../x86_64-w64-mingw32/lib/../lib32/libkernel32.a(dkzds01175.o)
 .bss           0x0000000000410438        0x0 C:/MinGW64/mingw64-6.3.0/bin/../lib/gcc/x86_64-w64-mingw32/6.3.0/../../../../x86_64-w64-mingw32/lib/../lib32/libkernel32.a(dkzds01162.o)
 .bss           0x0000000000410438        0x0 C:/MinGW64/mingw64-6.3.0/bin/../lib/gcc/x86_64-w64-mingw32/6.3.0/../../../../x86_64-w64-mingw32/lib/../lib32/libkernel32.a(dkzds00949.o)
 .bss           0x0000000000410438        0x0 C:/MinGW64/mingw64-6.3.0/bin/../lib/gcc/x86_64-w64-mingw32/6.3.0/../../../../x86_64-w64-mingw32/lib/../lib32/libkernel32.a(dkzds00836.o)
 .bss           0x0000000000410438        0x0 C:/MinGW64/mingw64-6.3.0/bin/../lib/gcc/x86_64-w64-mingw32/6.3.0/../../../../x86_64-w64-mingw32/lib/../lib32/libkernel32.a(dkzds00750.o)
 .bss           0x0000000000410438        0x0 C:/MinGW64/mingw64-6.3.0/bin/../lib/gcc/x86_64-w64-mingw32/6.3.0/../../../../x86_64-w64-mingw32/lib/../lib32/libkernel32.a(dkzds00666.o)
 .bss           0x0000000000410438        0x0 C:/MinGW64/mingw64-6.3.0/bin/../lib/gcc/x86_64-w64-mingw32/6.3.0/../../../../x86_64-w64-mingw32/lib/../lib32/libkernel32.a(dkzds00638.o)
 .bss           0x0000000000410438        0x0 C:/MinGW64/mingw64-6.3.0/bin/../lib/gcc/x86_64-w64-mingw32/6.3.0/../../../../x86_64-w64-mingw32/lib/../lib32/libkernel32.a(dkzds00615.o)
 .bss           0x0000000000410438        0x0 C:/MinGW64/mingw64-6.3.0/bin/../lib/gcc/x86_64-w64-mingw32/6.3.0/../../../../x86_64-w64-mingw32/lib/../lib32/libkernel32.a(dkzds00584.o)
 .bss           0x0000000000410438        0x0 C:/MinGW64/mingw64-6.3.0/bin/../lib/gcc/x86_64-w64-mingw32/6.3.0/../../../../x86_64-w64-mingw32/lib/../lib32/libkernel32.a(dkzds00536.o)
 .bss           0x0000000000410438        0x0 C:/MinGW64/mingw64-6.3.0/bin/../lib/gcc/x86_64-w64-mingw32/6.3.0/../../../../x86_64-w64-mingw32/lib/../lib32/libkernel32.a(dkzds00518.o)
 .bss           0x0000000000410438        0x0 C:/MinGW64/mingw64-6.3.0/bin/../lib/gcc/x86_64-w64-mingw32/6.3.0/../../../../x86_64-w64-mingw32/lib/../lib32/libkernel32.a(dkzds00460.o)
 .bss           0x0000000000410438        0x0 C:/MinGW64/mingw64-6.3.0/bin/../lib/gcc/x86_64-w64-mingw32/6.3.0/../../../../x86_64-w64-mingw32/lib/../lib32/libkernel32.a(dkzds00456.o)
 .bss           0x0000000000410438        0x0 C:/MinGW64/mingw64-6.3.0/bin/../lib/gcc/x86_64-w64-mingw32/6.3.0/../../../../x86_64-w64-mingw32/lib/../lib32/libkernel32.a(dkzds00455.o)
 .bss           0x0000000000410438        0x0 C:/MinGW64/mingw64-6.3.0/bin/../lib/gcc/x86_64-w64-mingw32/6.3.0/../../../../x86_64-w64-mingw32/lib/../lib32/libkernel32.a(dkzds00242.o)
 .bss           0x0000000000410438        0x0 C:/MinGW64/mingw64-6.3.0/bin/../lib/gcc/x86_64-w64-mingw32/6.3.0/../../../../x86_64-w64-mingw32/lib/../lib32/libkernel32.a(dkzds00214.o)
 .bss           0x0000000000410438        0x0 C:/MinGW64/mingw64-6.3.0/bin/../lib/gcc/x86_64-w64-mingw32/6.3.0/../../../../x86_64-w64-mingw32/lib/../lib32/libkernel32.a(dkzdh.o)
 .bss           0x0000000000410438        0x0 C:/MinGW64/mingw64-6.3.0/bin/../lib/gcc/x86_64-w64-mingw32/6.3.0/../../../../x86_64-w64-mingw32/lib/../lib32/libkernel32.a(dkzdt.o)
 .bss           0x0000000000410438        0x0 C:/MinGW64/mingw64-6.3.0/bin/../lib/gcc/x86_64-w64-mingw32/6.3.0/32/crtend.o
 *(COMMON)
 COMMON         0x0000000000410438        0x8 C:/MinGW64/mingw64-6.3.0/bin/../lib/gcc/x86_64-w64-mingw32/6.3.0/../../../../x86_64-w64-mingw32/lib/../lib32/crt2.o
                0x0000000000410438                __mingw_winmain_lpCmdLine
                0x000000000041043c                __mingw_winmain_hInstance
 COMMON         0x0000000000410440     0x5aa0 OpenJADE\out\preamp1\x86\obj\app\Baf\Baf\OJSP.o
                0x0000000000410440                rsp_Talaria
                0x0000000000410580                g_ojspConfig
                0x00000000004105a0                req_Talaria
                0x00000000004106e0                heap_buffer
                0x00000000004146e0                heap_log_buffer
 COMMON         0x0000000000415ee0       0x60 OpenJADE\out\preamp1\x86\lib\Baf\Baf.lib(BAF.o)
                0x0000000000415ee0                BAF_logger
 COMMON         0x0000000000415f40        0xc OpenJADE\out\preamp1\x86\lib\Baf\Baf.lib(Audio_Graph.o)
                0x0000000000415f40                Basicaudio_target_Fwd_Ipc_buffer
                0x0000000000415f44                UnitTest_Target_AudioIn
                0x0000000000415f48                UnitTest_Target_AudioOut
 *fill*         0x0000000000415f4c       0x14 
 COMMON         0x0000000000415f60      0x66c OpenJADE\out\preamp1\x86\lib\Baf\Baf.lib(BasicAudio_Target.o)
                0x0000000000415f60                BasicAudio_Target_DW
                0x0000000000415f80                BasicAudio_Target_B
 *fill*         0x00000000004165cc       0x14 
 COMMON         0x00000000004165e0     0x407c OpenJADE\out\preamp1\x86\lib\Platform\Baf\SIL.lib(oj_platform.o)
                0x00000000004165e0                g_request_buff
                0x00000000004175e0                g_response_buff
                0x00000000004185e0                g_control_hex
                0x000000000041a5e0                g_platfromConfig
 COMMON         0x000000000041a65c        0x8 C:/MinGW64/mingw64-6.3.0/bin/../lib/gcc/x86_64-w64-mingw32/6.3.0/../../../../x86_64-w64-mingw32/lib/../lib32/libmingw32.a(lib32_libmingw32_a-atonexit.o)
                0x000000000041a65c                __onexitend
                0x000000000041a660                __onexitbegin
 COMMON         0x000000000041a664        0x8 C:/MinGW64/mingw64-6.3.0/bin/../lib/gcc/x86_64-w64-mingw32/6.3.0/../../../../x86_64-w64-mingw32/lib/../lib32/libmingw32.a(lib32_libmingw32_a-natstart.o)
                0x000000000041a664                __native_startup_lock
                0x000000000041a668                __native_startup_state
 COMMON         0x000000000041a66c       0x10 C:/MinGW64/mingw64-6.3.0/bin/../lib/gcc/x86_64-w64-mingw32/6.3.0/32/libgcc.a(_ctors.o)
                0x000000000041a67c                __bss_end__ = .

.edata
 *(.edata)

/DISCARD/
 *(.debug$S)
 *(.debug$T)
 *(.debug$F)
 *(.drectve)
 *(.note.GNU-stack)
 *(.gnu.lto_*)

.idata          0x000000000041b000      0x800
 SORT(*)(.idata$2)
 .idata$2       0x000000000041b000       0x14 C:/MinGW64/mingw64-6.3.0/bin/../lib/gcc/x86_64-w64-mingw32/6.3.0/../../../../x86_64-w64-mingw32/lib/../lib32/libkernel32.a(dkzdh.o)
                0x000000000041b000                _head_lib32_libkernel32_a
 .idata$2       0x000000000041b014       0x14 C:/MinGW64/mingw64-6.3.0/bin/../lib/gcc/x86_64-w64-mingw32/6.3.0/../../../../x86_64-w64-mingw32/lib/../lib32/libmsvcrt.a(dakeh.o)
                0x000000000041b014                _head_lib32_libmsvcrt_a
 SORT(*)(.idata$3)
                0x000000000041b028        0x4 LONG 0x0
                0x000000000041b02c        0x4 LONG 0x0
                0x000000000041b030        0x4 LONG 0x0
                0x000000000041b034        0x4 LONG 0x0
                0x000000000041b038        0x4 LONG 0x0
 SORT(*)(.idata$4)
 .idata$4       0x000000000041b03c        0x0 C:/MinGW64/mingw64-6.3.0/bin/../lib/gcc/x86_64-w64-mingw32/6.3.0/../../../../x86_64-w64-mingw32/lib/../lib32/libkernel32.a(dkzdh.o)
 .idata$4       0x000000000041b03c        0x4 C:/MinGW64/mingw64-6.3.0/bin/../lib/gcc/x86_64-w64-mingw32/6.3.0/../../../../x86_64-w64-mingw32/lib/../lib32/libkernel32.a(dkzds00214.o)
 .idata$4       0x000000000041b040        0x4 C:/MinGW64/mingw64-6.3.0/bin/../lib/gcc/x86_64-w64-mingw32/6.3.0/../../../../x86_64-w64-mingw32/lib/../lib32/libkernel32.a(dkzds00242.o)
 .idata$4       0x000000000041b044        0x4 C:/MinGW64/mingw64-6.3.0/bin/../lib/gcc/x86_64-w64-mingw32/6.3.0/../../../../x86_64-w64-mingw32/lib/../lib32/libkernel32.a(dkzds00455.o)
 .idata$4       0x000000000041b048        0x4 C:/MinGW64/mingw64-6.3.0/bin/../lib/gcc/x86_64-w64-mingw32/6.3.0/../../../../x86_64-w64-mingw32/lib/../lib32/libkernel32.a(dkzds00456.o)
 .idata$4       0x000000000041b04c        0x4 C:/MinGW64/mingw64-6.3.0/bin/../lib/gcc/x86_64-w64-mingw32/6.3.0/../../../../x86_64-w64-mingw32/lib/../lib32/libkernel32.a(dkzds00460.o)
 .idata$4       0x000000000041b050        0x4 C:/MinGW64/mingw64-6.3.0/bin/../lib/gcc/x86_64-w64-mingw32/6.3.0/../../../../x86_64-w64-mingw32/lib/../lib32/libkernel32.a(dkzds00518.o)
 .idata$4       0x000000000041b054        0x4 C:/MinGW64/mingw64-6.3.0/bin/../lib/gcc/x86_64-w64-mingw32/6.3.0/../../../../x86_64-w64-mingw32/lib/../lib32/libkernel32.a(dkzds00536.o)
 .idata$4       0x000000000041b058        0x4 C:/MinGW64/mingw64-6.3.0/bin/../lib/gcc/x86_64-w64-mingw32/6.3.0/../../../../x86_64-w64-mingw32/lib/../lib32/libkernel32.a(dkzds00584.o)
 .idata$4       0x000000000041b05c        0x4 C:/MinGW64/mingw64-6.3.0/bin/../lib/gcc/x86_64-w64-mingw32/6.3.0/../../../../x86_64-w64-mingw32/lib/../lib32/libkernel32.a(dkzds00615.o)
 .idata$4       0x000000000041b060        0x4 C:/MinGW64/mingw64-6.3.0/bin/../lib/gcc/x86_64-w64-mingw32/6.3.0/../../../../x86_64-w64-mingw32/lib/../lib32/libkernel32.a(dkzds00638.o)
 .idata$4       0x000000000041b064        0x4 C:/MinGW64/mingw64-6.3.0/bin/../lib/gcc/x86_64-w64-mingw32/6.3.0/../../../../x86_64-w64-mingw32/lib/../lib32/libkernel32.a(dkzds00666.o)
 .idata$4       0x000000000041b068        0x4 C:/MinGW64/mingw64-6.3.0/bin/../lib/gcc/x86_64-w64-mingw32/6.3.0/../../../../x86_64-w64-mingw32/lib/../lib32/libkernel32.a(dkzds00750.o)
 .idata$4       0x000000000041b06c        0x4 C:/MinGW64/mingw64-6.3.0/bin/../lib/gcc/x86_64-w64-mingw32/6.3.0/../../../../x86_64-w64-mingw32/lib/../lib32/libkernel32.a(dkzds00836.o)
 .idata$4       0x000000000041b070        0x4 C:/MinGW64/mingw64-6.3.0/bin/../lib/gcc/x86_64-w64-mingw32/6.3.0/../../../../x86_64-w64-mingw32/lib/../lib32/libkernel32.a(dkzds00949.o)
 .idata$4       0x000000000041b074        0x4 C:/MinGW64/mingw64-6.3.0/bin/../lib/gcc/x86_64-w64-mingw32/6.3.0/../../../../x86_64-w64-mingw32/lib/../lib32/libkernel32.a(dkzds01162.o)
 .idata$4       0x000000000041b078        0x4 C:/MinGW64/mingw64-6.3.0/bin/../lib/gcc/x86_64-w64-mingw32/6.3.0/../../../../x86_64-w64-mingw32/lib/../lib32/libkernel32.a(dkzds01175.o)
 .idata$4       0x000000000041b07c        0x4 C:/MinGW64/mingw64-6.3.0/bin/../lib/gcc/x86_64-w64-mingw32/6.3.0/../../../../x86_64-w64-mingw32/lib/../lib32/libkernel32.a(dkzds01189.o)
 .idata$4       0x000000000041b080        0x4 C:/MinGW64/mingw64-6.3.0/bin/../lib/gcc/x86_64-w64-mingw32/6.3.0/../../../../x86_64-w64-mingw32/lib/../lib32/libkernel32.a(dkzds01196.o)
 .idata$4       0x000000000041b084        0x4 C:/MinGW64/mingw64-6.3.0/bin/../lib/gcc/x86_64-w64-mingw32/6.3.0/../../../../x86_64-w64-mingw32/lib/../lib32/libkernel32.a(dkzds01209.o)
 .idata$4       0x000000000041b088        0x4 C:/MinGW64/mingw64-6.3.0/bin/../lib/gcc/x86_64-w64-mingw32/6.3.0/../../../../x86_64-w64-mingw32/lib/../lib32/libkernel32.a(dkzds01242.o)
 .idata$4       0x000000000041b08c        0x4 C:/MinGW64/mingw64-6.3.0/bin/../lib/gcc/x86_64-w64-mingw32/6.3.0/../../../../x86_64-w64-mingw32/lib/../lib32/libkernel32.a(dkzds01245.o)
 .idata$4       0x000000000041b090        0x4 C:/MinGW64/mingw64-6.3.0/bin/../lib/gcc/x86_64-w64-mingw32/6.3.0/../../../../x86_64-w64-mingw32/lib/../lib32/libkernel32.a(dkzdt.o)
 .idata$4       0x000000000041b094        0x0 C:/MinGW64/mingw64-6.3.0/bin/../lib/gcc/x86_64-w64-mingw32/6.3.0/../../../../x86_64-w64-mingw32/lib/../lib32/libmsvcrt.a(dakeh.o)
 .idata$4       0x000000000041b094        0x4 C:/MinGW64/mingw64-6.3.0/bin/../lib/gcc/x86_64-w64-mingw32/6.3.0/../../../../x86_64-w64-mingw32/lib/../lib32/libmsvcrt.a(dakes00055.o)
 .idata$4       0x000000000041b098        0x4 C:/MinGW64/mingw64-6.3.0/bin/../lib/gcc/x86_64-w64-mingw32/6.3.0/../../../../x86_64-w64-mingw32/lib/../lib32/libmsvcrt.a(dakes00058.o)
 .idata$4       0x000000000041b09c        0x4 C:/MinGW64/mingw64-6.3.0/bin/../lib/gcc/x86_64-w64-mingw32/6.3.0/../../../../x86_64-w64-mingw32/lib/../lib32/libmsvcrt.a(dakes00059.o)
 .idata$4       0x000000000041b0a0        0x4 C:/MinGW64/mingw64-6.3.0/bin/../lib/gcc/x86_64-w64-mingw32/6.3.0/../../../../x86_64-w64-mingw32/lib/../lib32/libmsvcrt.a(dakes00068.o)
 .idata$4       0x000000000041b0a4        0x4 C:/MinGW64/mingw64-6.3.0/bin/../lib/gcc/x86_64-w64-mingw32/6.3.0/../../../../x86_64-w64-mingw32/lib/../lib32/libmsvcrt.a(dakes00104.o)
 .idata$4       0x000000000041b0a8        0x4 C:/MinGW64/mingw64-6.3.0/bin/../lib/gcc/x86_64-w64-mingw32/6.3.0/../../../../x86_64-w64-mingw32/lib/../lib32/libmsvcrt.a(dakes00107.o)
 .idata$4       0x000000000041b0ac        0x4 C:/MinGW64/mingw64-6.3.0/bin/../lib/gcc/x86_64-w64-mingw32/6.3.0/../../../../x86_64-w64-mingw32/lib/../lib32/libmsvcrt.a(dakes00123.o)
 .idata$4       0x000000000041b0b0        0x4 C:/MinGW64/mingw64-6.3.0/bin/../lib/gcc/x86_64-w64-mingw32/6.3.0/../../../../x86_64-w64-mingw32/lib/../lib32/libmsvcrt.a(dakes00144.o)
 .idata$4       0x000000000041b0b4        0x4 C:/MinGW64/mingw64-6.3.0/bin/../lib/gcc/x86_64-w64-mingw32/6.3.0/../../../../x86_64-w64-mingw32/lib/../lib32/libmsvcrt.a(dakes00161.o)
 .idata$4       0x000000000041b0b8        0x4 C:/MinGW64/mingw64-6.3.0/bin/../lib/gcc/x86_64-w64-mingw32/6.3.0/../../../../x86_64-w64-mingw32/lib/../lib32/libmsvcrt.a(dakes00222.o)
 .idata$4       0x000000000041b0bc        0x4 C:/MinGW64/mingw64-6.3.0/bin/../lib/gcc/x86_64-w64-mingw32/6.3.0/../../../../x86_64-w64-mingw32/lib/../lib32/libmsvcrt.a(dakes00275.o)
 .idata$4       0x000000000041b0c0        0x4 C:/MinGW64/mingw64-6.3.0/bin/../lib/gcc/x86_64-w64-mingw32/6.3.0/../../../../x86_64-w64-mingw32/lib/../lib32/libmsvcrt.a(dakes00352.o)
 .idata$4       0x000000000041b0c4        0x4 C:/MinGW64/mingw64-6.3.0/bin/../lib/gcc/x86_64-w64-mingw32/6.3.0/../../../../x86_64-w64-mingw32/lib/../lib32/libmsvcrt.a(dakes00356.o)
 .idata$4       0x000000000041b0c8        0x4 C:/MinGW64/mingw64-6.3.0/bin/../lib/gcc/x86_64-w64-mingw32/6.3.0/../../../../x86_64-w64-mingw32/lib/../lib32/libmsvcrt.a(dakes00458.o)
 .idata$4       0x000000000041b0cc        0x4 C:/MinGW64/mingw64-6.3.0/bin/../lib/gcc/x86_64-w64-mingw32/6.3.0/../../../../x86_64-w64-mingw32/lib/../lib32/libmsvcrt.a(dakes00629.o)
 .idata$4       0x000000000041b0d0        0x4 C:/MinGW64/mingw64-6.3.0/bin/../lib/gcc/x86_64-w64-mingw32/6.3.0/../../../../x86_64-w64-mingw32/lib/../lib32/libmsvcrt.a(dakes00844.o)
 .idata$4       0x000000000041b0d4        0x4 C:/MinGW64/mingw64-6.3.0/bin/../lib/gcc/x86_64-w64-mingw32/6.3.0/../../../../x86_64-w64-mingw32/lib/../lib32/libmsvcrt.a(dakes01057.o)
 .idata$4       0x000000000041b0d8        0x4 C:/MinGW64/mingw64-6.3.0/bin/../lib/gcc/x86_64-w64-mingw32/6.3.0/../../../../x86_64-w64-mingw32/lib/../lib32/libmsvcrt.a(dakes01071.o)
 .idata$4       0x000000000041b0dc        0x4 C:/MinGW64/mingw64-6.3.0/bin/../lib/gcc/x86_64-w64-mingw32/6.3.0/../../../../x86_64-w64-mingw32/lib/../lib32/libmsvcrt.a(dakes01082.o)
 .idata$4       0x000000000041b0e0        0x4 C:/MinGW64/mingw64-6.3.0/bin/../lib/gcc/x86_64-w64-mingw32/6.3.0/../../../../x86_64-w64-mingw32/lib/../lib32/libmsvcrt.a(dakes01085.o)
 .idata$4       0x000000000041b0e4        0x4 C:/MinGW64/mingw64-6.3.0/bin/../lib/gcc/x86_64-w64-mingw32/6.3.0/../../../../x86_64-w64-mingw32/lib/../lib32/libmsvcrt.a(dakes01086.o)
 .idata$4       0x000000000041b0e8        0x4 C:/MinGW64/mingw64-6.3.0/bin/../lib/gcc/x86_64-w64-mingw32/6.3.0/../../../../x86_64-w64-mingw32/lib/../lib32/libmsvcrt.a(dakes01091.o)
 .idata$4       0x000000000041b0ec        0x4 C:/MinGW64/mingw64-6.3.0/bin/../lib/gcc/x86_64-w64-mingw32/6.3.0/../../../../x86_64-w64-mingw32/lib/../lib32/libmsvcrt.a(dakes01096.o)
 .idata$4       0x000000000041b0f0        0x4 C:/MinGW64/mingw64-6.3.0/bin/../lib/gcc/x86_64-w64-mingw32/6.3.0/../../../../x86_64-w64-mingw32/lib/../lib32/libmsvcrt.a(dakes01098.o)
 .idata$4       0x000000000041b0f4        0x4 C:/MinGW64/mingw64-6.3.0/bin/../lib/gcc/x86_64-w64-mingw32/6.3.0/../../../../x86_64-w64-mingw32/lib/../lib32/libmsvcrt.a(dakes01100.o)
 .idata$4       0x000000000041b0f8        0x4 C:/MinGW64/mingw64-6.3.0/bin/../lib/gcc/x86_64-w64-mingw32/6.3.0/../../../../x86_64-w64-mingw32/lib/../lib32/libmsvcrt.a(dakes01104.o)
 .idata$4       0x000000000041b0fc        0x4 C:/MinGW64/mingw64-6.3.0/bin/../lib/gcc/x86_64-w64-mingw32/6.3.0/../../../../x86_64-w64-mingw32/lib/../lib32/libmsvcrt.a(dakes01105.o)
 .idata$4       0x000000000041b100        0x4 C:/MinGW64/mingw64-6.3.0/bin/../lib/gcc/x86_64-w64-mingw32/6.3.0/../../../../x86_64-w64-mingw32/lib/../lib32/libmsvcrt.a(dakes01117.o)
 .idata$4       0x000000000041b104        0x4 C:/MinGW64/mingw64-6.3.0/bin/../lib/gcc/x86_64-w64-mingw32/6.3.0/../../../../x86_64-w64-mingw32/lib/../lib32/libmsvcrt.a(dakes01162.o)
 .idata$4       0x000000000041b108        0x4 C:/MinGW64/mingw64-6.3.0/bin/../lib/gcc/x86_64-w64-mingw32/6.3.0/../../../../x86_64-w64-mingw32/lib/../lib32/libmsvcrt.a(dakes01164.o)
 .idata$4       0x000000000041b10c        0x4 C:/MinGW64/mingw64-6.3.0/bin/../lib/gcc/x86_64-w64-mingw32/6.3.0/../../../../x86_64-w64-mingw32/lib/../lib32/libmsvcrt.a(dakes01172.o)
 .idata$4       0x000000000041b110        0x4 C:/MinGW64/mingw64-6.3.0/bin/../lib/gcc/x86_64-w64-mingw32/6.3.0/../../../../x86_64-w64-mingw32/lib/../lib32/libmsvcrt.a(dakes01175.o)
 .idata$4       0x000000000041b114        0x4 C:/MinGW64/mingw64-6.3.0/bin/../lib/gcc/x86_64-w64-mingw32/6.3.0/../../../../x86_64-w64-mingw32/lib/../lib32/libmsvcrt.a(dakes01200.o)
 .idata$4       0x000000000041b118        0x4 C:/MinGW64/mingw64-6.3.0/bin/../lib/gcc/x86_64-w64-mingw32/6.3.0/../../../../x86_64-w64-mingw32/lib/../lib32/libmsvcrt.a(dakes01218.o)
 .idata$4       0x000000000041b11c        0x4 C:/MinGW64/mingw64-6.3.0/bin/../lib/gcc/x86_64-w64-mingw32/6.3.0/../../../../x86_64-w64-mingw32/lib/../lib32/libmsvcrt.a(dakes01221.o)
 .idata$4       0x000000000041b120        0x4 C:/MinGW64/mingw64-6.3.0/bin/../lib/gcc/x86_64-w64-mingw32/6.3.0/../../../../x86_64-w64-mingw32/lib/../lib32/libmsvcrt.a(dakes01254.o)
 .idata$4       0x000000000041b124        0x4 C:/MinGW64/mingw64-6.3.0/bin/../lib/gcc/x86_64-w64-mingw32/6.3.0/../../../../x86_64-w64-mingw32/lib/../lib32/libmsvcrt.a(dakes01258.o)
 .idata$4       0x000000000041b128        0x4 C:/MinGW64/mingw64-6.3.0/bin/../lib/gcc/x86_64-w64-mingw32/6.3.0/../../../../x86_64-w64-mingw32/lib/../lib32/libmsvcrt.a(daket.o)
                0x000000000041b12c                __IAT_start__ = .
 SORT(*)(.idata$5)
 .idata$5       0x000000000041b12c        0x0 C:/MinGW64/mingw64-6.3.0/bin/../lib/gcc/x86_64-w64-mingw32/6.3.0/../../../../x86_64-w64-mingw32/lib/../lib32/libkernel32.a(dkzdh.o)
 .idata$5       0x000000000041b12c        0x4 C:/MinGW64/mingw64-6.3.0/bin/../lib/gcc/x86_64-w64-mingw32/6.3.0/../../../../x86_64-w64-mingw32/lib/../lib32/libkernel32.a(dkzds00214.o)
                0x000000000041b12c                _imp__DeleteCriticalSection@4
 .idata$5       0x000000000041b130        0x4 C:/MinGW64/mingw64-6.3.0/bin/../lib/gcc/x86_64-w64-mingw32/6.3.0/../../../../x86_64-w64-mingw32/lib/../lib32/libkernel32.a(dkzds00242.o)
                0x000000000041b130                _imp__EnterCriticalSection@4
 .idata$5       0x000000000041b134        0x4 C:/MinGW64/mingw64-6.3.0/bin/../lib/gcc/x86_64-w64-mingw32/6.3.0/../../../../x86_64-w64-mingw32/lib/../lib32/libkernel32.a(dkzds00455.o)
                0x000000000041b134                _imp__GetCurrentProcess@0
 .idata$5       0x000000000041b138        0x4 C:/MinGW64/mingw64-6.3.0/bin/../lib/gcc/x86_64-w64-mingw32/6.3.0/../../../../x86_64-w64-mingw32/lib/../lib32/libkernel32.a(dkzds00456.o)
                0x000000000041b138                _imp__GetCurrentProcessId@0
 .idata$5       0x000000000041b13c        0x4 C:/MinGW64/mingw64-6.3.0/bin/../lib/gcc/x86_64-w64-mingw32/6.3.0/../../../../x86_64-w64-mingw32/lib/../lib32/libkernel32.a(dkzds00460.o)
                0x000000000041b13c                _imp__GetCurrentThreadId@0
 .idata$5       0x000000000041b140        0x4 C:/MinGW64/mingw64-6.3.0/bin/../lib/gcc/x86_64-w64-mingw32/6.3.0/../../../../x86_64-w64-mingw32/lib/../lib32/libkernel32.a(dkzds00518.o)
                0x000000000041b140                _imp__GetLastError@0
 .idata$5       0x000000000041b144        0x4 C:/MinGW64/mingw64-6.3.0/bin/../lib/gcc/x86_64-w64-mingw32/6.3.0/../../../../x86_64-w64-mingw32/lib/../lib32/libkernel32.a(dkzds00536.o)
                0x000000000041b144                _imp__GetModuleHandleA@4
 .idata$5       0x000000000041b148        0x4 C:/MinGW64/mingw64-6.3.0/bin/../lib/gcc/x86_64-w64-mingw32/6.3.0/../../../../x86_64-w64-mingw32/lib/../lib32/libkernel32.a(dkzds00584.o)
                0x000000000041b148                _imp__GetProcAddress@8
 .idata$5       0x000000000041b14c        0x4 C:/MinGW64/mingw64-6.3.0/bin/../lib/gcc/x86_64-w64-mingw32/6.3.0/../../../../x86_64-w64-mingw32/lib/../lib32/libkernel32.a(dkzds00615.o)
                0x000000000041b14c                _imp__GetStartupInfoA@4
 .idata$5       0x000000000041b150        0x4 C:/MinGW64/mingw64-6.3.0/bin/../lib/gcc/x86_64-w64-mingw32/6.3.0/../../../../x86_64-w64-mingw32/lib/../lib32/libkernel32.a(dkzds00638.o)
                0x000000000041b150                _imp__GetSystemTimeAsFileTime@4
 .idata$5       0x000000000041b154        0x4 C:/MinGW64/mingw64-6.3.0/bin/../lib/gcc/x86_64-w64-mingw32/6.3.0/../../../../x86_64-w64-mingw32/lib/../lib32/libkernel32.a(dkzds00666.o)
                0x000000000041b154                _imp__GetTickCount@0
 .idata$5       0x000000000041b158        0x4 C:/MinGW64/mingw64-6.3.0/bin/../lib/gcc/x86_64-w64-mingw32/6.3.0/../../../../x86_64-w64-mingw32/lib/../lib32/libkernel32.a(dkzds00750.o)
                0x000000000041b158                _imp__InitializeCriticalSection@4
 .idata$5       0x000000000041b15c        0x4 C:/MinGW64/mingw64-6.3.0/bin/../lib/gcc/x86_64-w64-mingw32/6.3.0/../../../../x86_64-w64-mingw32/lib/../lib32/libkernel32.a(dkzds00836.o)
                0x000000000041b15c                _imp__LeaveCriticalSection@4
 .idata$5       0x000000000041b160        0x4 C:/MinGW64/mingw64-6.3.0/bin/../lib/gcc/x86_64-w64-mingw32/6.3.0/../../../../x86_64-w64-mingw32/lib/../lib32/libkernel32.a(dkzds00949.o)
                0x000000000041b160                _imp__QueryPerformanceCounter@4
 .idata$5       0x000000000041b164        0x4 C:/MinGW64/mingw64-6.3.0/bin/../lib/gcc/x86_64-w64-mingw32/6.3.0/../../../../x86_64-w64-mingw32/lib/../lib32/libkernel32.a(dkzds01162.o)
                0x000000000041b164                _imp__SetUnhandledExceptionFilter@4
 .idata$5       0x000000000041b168        0x4 C:/MinGW64/mingw64-6.3.0/bin/../lib/gcc/x86_64-w64-mingw32/6.3.0/../../../../x86_64-w64-mingw32/lib/../lib32/libkernel32.a(dkzds01175.o)
                0x000000000041b168                _imp__Sleep@4
 .idata$5       0x000000000041b16c        0x4 C:/MinGW64/mingw64-6.3.0/bin/../lib/gcc/x86_64-w64-mingw32/6.3.0/../../../../x86_64-w64-mingw32/lib/../lib32/libkernel32.a(dkzds01189.o)
                0x000000000041b16c                _imp__TerminateProcess@8
 .idata$5       0x000000000041b170        0x4 C:/MinGW64/mingw64-6.3.0/bin/../lib/gcc/x86_64-w64-mingw32/6.3.0/../../../../x86_64-w64-mingw32/lib/../lib32/libkernel32.a(dkzds01196.o)
                0x000000000041b170                _imp__TlsGetValue@4
 .idata$5       0x000000000041b174        0x4 C:/MinGW64/mingw64-6.3.0/bin/../lib/gcc/x86_64-w64-mingw32/6.3.0/../../../../x86_64-w64-mingw32/lib/../lib32/libkernel32.a(dkzds01209.o)
                0x000000000041b174                _imp__UnhandledExceptionFilter@4
 .idata$5       0x000000000041b178        0x4 C:/MinGW64/mingw64-6.3.0/bin/../lib/gcc/x86_64-w64-mingw32/6.3.0/../../../../x86_64-w64-mingw32/lib/../lib32/libkernel32.a(dkzds01242.o)
                0x000000000041b178                _imp__VirtualProtect@16
 .idata$5       0x000000000041b17c        0x4 C:/MinGW64/mingw64-6.3.0/bin/../lib/gcc/x86_64-w64-mingw32/6.3.0/../../../../x86_64-w64-mingw32/lib/../lib32/libkernel32.a(dkzds01245.o)
                0x000000000041b17c                _imp__VirtualQuery@12
 .idata$5       0x000000000041b180        0x4 C:/MinGW64/mingw64-6.3.0/bin/../lib/gcc/x86_64-w64-mingw32/6.3.0/../../../../x86_64-w64-mingw32/lib/../lib32/libkernel32.a(dkzdt.o)
 .idata$5       0x000000000041b184        0x0 C:/MinGW64/mingw64-6.3.0/bin/../lib/gcc/x86_64-w64-mingw32/6.3.0/../../../../x86_64-w64-mingw32/lib/../lib32/libmsvcrt.a(dakeh.o)
 .idata$5       0x000000000041b184        0x4 C:/MinGW64/mingw64-6.3.0/bin/../lib/gcc/x86_64-w64-mingw32/6.3.0/../../../../x86_64-w64-mingw32/lib/../lib32/libmsvcrt.a(dakes00055.o)
                0x000000000041b184                _imp____dllonexit
 .idata$5       0x000000000041b188        0x4 C:/MinGW64/mingw64-6.3.0/bin/../lib/gcc/x86_64-w64-mingw32/6.3.0/../../../../x86_64-w64-mingw32/lib/../lib32/libmsvcrt.a(dakes00058.o)
                0x000000000041b188                _imp____getmainargs
 .idata$5       0x000000000041b18c        0x4 C:/MinGW64/mingw64-6.3.0/bin/../lib/gcc/x86_64-w64-mingw32/6.3.0/../../../../x86_64-w64-mingw32/lib/../lib32/libmsvcrt.a(dakes00059.o)
                0x000000000041b18c                _imp____initenv
 .idata$5       0x000000000041b190        0x4 C:/MinGW64/mingw64-6.3.0/bin/../lib/gcc/x86_64-w64-mingw32/6.3.0/../../../../x86_64-w64-mingw32/lib/../lib32/libmsvcrt.a(dakes00068.o)
                0x000000000041b190                _imp____lconv_init
 .idata$5       0x000000000041b194        0x4 C:/MinGW64/mingw64-6.3.0/bin/../lib/gcc/x86_64-w64-mingw32/6.3.0/../../../../x86_64-w64-mingw32/lib/../lib32/libmsvcrt.a(dakes00104.o)
                0x000000000041b194                _imp____set_app_type
 .idata$5       0x000000000041b198        0x4 C:/MinGW64/mingw64-6.3.0/bin/../lib/gcc/x86_64-w64-mingw32/6.3.0/../../../../x86_64-w64-mingw32/lib/../lib32/libmsvcrt.a(dakes00107.o)
                0x000000000041b198                _imp____setusermatherr
 .idata$5       0x000000000041b19c        0x4 C:/MinGW64/mingw64-6.3.0/bin/../lib/gcc/x86_64-w64-mingw32/6.3.0/../../../../x86_64-w64-mingw32/lib/../lib32/libmsvcrt.a(dakes00123.o)
                0x000000000041b19c                _imp___acmdln
 .idata$5       0x000000000041b1a0        0x4 C:/MinGW64/mingw64-6.3.0/bin/../lib/gcc/x86_64-w64-mingw32/6.3.0/../../../../x86_64-w64-mingw32/lib/../lib32/libmsvcrt.a(dakes00144.o)
                0x000000000041b1a0                _imp___amsg_exit
 .idata$5       0x000000000041b1a4        0x4 C:/MinGW64/mingw64-6.3.0/bin/../lib/gcc/x86_64-w64-mingw32/6.3.0/../../../../x86_64-w64-mingw32/lib/../lib32/libmsvcrt.a(dakes00161.o)
                0x000000000041b1a4                _imp___cexit
 .idata$5       0x000000000041b1a8        0x4 C:/MinGW64/mingw64-6.3.0/bin/../lib/gcc/x86_64-w64-mingw32/6.3.0/../../../../x86_64-w64-mingw32/lib/../lib32/libmsvcrt.a(dakes00222.o)
                0x000000000041b1a8                _imp___errno
 .idata$5       0x000000000041b1ac        0x4 C:/MinGW64/mingw64-6.3.0/bin/../lib/gcc/x86_64-w64-mingw32/6.3.0/../../../../x86_64-w64-mingw32/lib/../lib32/libmsvcrt.a(dakes00275.o)
                0x000000000041b1ac                _imp___fmode
 .idata$5       0x000000000041b1b0        0x4 C:/MinGW64/mingw64-6.3.0/bin/../lib/gcc/x86_64-w64-mingw32/6.3.0/../../../../x86_64-w64-mingw32/lib/../lib32/libmsvcrt.a(dakes00352.o)
                0x000000000041b1b0                _imp___initterm
 .idata$5       0x000000000041b1b4        0x4 C:/MinGW64/mingw64-6.3.0/bin/../lib/gcc/x86_64-w64-mingw32/6.3.0/../../../../x86_64-w64-mingw32/lib/../lib32/libmsvcrt.a(dakes00356.o)
                0x000000000041b1b4                _imp___iob
 .idata$5       0x000000000041b1b8        0x4 C:/MinGW64/mingw64-6.3.0/bin/../lib/gcc/x86_64-w64-mingw32/6.3.0/../../../../x86_64-w64-mingw32/lib/../lib32/libmsvcrt.a(dakes00458.o)
                0x000000000041b1b8                _imp___lock
 .idata$5       0x000000000041b1bc        0x4 C:/MinGW64/mingw64-6.3.0/bin/../lib/gcc/x86_64-w64-mingw32/6.3.0/../../../../x86_64-w64-mingw32/lib/../lib32/libmsvcrt.a(dakes00629.o)
                0x000000000041b1bc                _imp___onexit
 .idata$5       0x000000000041b1c0        0x4 C:/MinGW64/mingw64-6.3.0/bin/../lib/gcc/x86_64-w64-mingw32/6.3.0/../../../../x86_64-w64-mingw32/lib/../lib32/libmsvcrt.a(dakes00844.o)
                0x000000000041b1c0                _imp___unlock
 .idata$5       0x000000000041b1c4        0x4 C:/MinGW64/mingw64-6.3.0/bin/../lib/gcc/x86_64-w64-mingw32/6.3.0/../../../../x86_64-w64-mingw32/lib/../lib32/libmsvcrt.a(dakes01057.o)
                0x000000000041b1c4                _imp__abort
 .idata$5       0x000000000041b1c8        0x4 C:/MinGW64/mingw64-6.3.0/bin/../lib/gcc/x86_64-w64-mingw32/6.3.0/../../../../x86_64-w64-mingw32/lib/../lib32/libmsvcrt.a(dakes01071.o)
                0x000000000041b1c8                _imp__calloc
 .idata$5       0x000000000041b1cc        0x4 C:/MinGW64/mingw64-6.3.0/bin/../lib/gcc/x86_64-w64-mingw32/6.3.0/../../../../x86_64-w64-mingw32/lib/../lib32/libmsvcrt.a(dakes01082.o)
                0x000000000041b1cc                _imp__exit
 .idata$5       0x000000000041b1d0        0x4 C:/MinGW64/mingw64-6.3.0/bin/../lib/gcc/x86_64-w64-mingw32/6.3.0/../../../../x86_64-w64-mingw32/lib/../lib32/libmsvcrt.a(dakes01085.o)
                0x000000000041b1d0                _imp__fclose
 .idata$5       0x000000000041b1d4        0x4 C:/MinGW64/mingw64-6.3.0/bin/../lib/gcc/x86_64-w64-mingw32/6.3.0/../../../../x86_64-w64-mingw32/lib/../lib32/libmsvcrt.a(dakes01086.o)
                0x000000000041b1d4                _imp__feof
 .idata$5       0x000000000041b1d8        0x4 C:/MinGW64/mingw64-6.3.0/bin/../lib/gcc/x86_64-w64-mingw32/6.3.0/../../../../x86_64-w64-mingw32/lib/../lib32/libmsvcrt.a(dakes01091.o)
                0x000000000041b1d8                _imp__fgets
 .idata$5       0x000000000041b1dc        0x4 C:/MinGW64/mingw64-6.3.0/bin/../lib/gcc/x86_64-w64-mingw32/6.3.0/../../../../x86_64-w64-mingw32/lib/../lib32/libmsvcrt.a(dakes01096.o)
                0x000000000041b1dc                _imp__fopen
 .idata$5       0x000000000041b1e0        0x4 C:/MinGW64/mingw64-6.3.0/bin/../lib/gcc/x86_64-w64-mingw32/6.3.0/../../../../x86_64-w64-mingw32/lib/../lib32/libmsvcrt.a(dakes01098.o)
                0x000000000041b1e0                _imp__fprintf
 .idata$5       0x000000000041b1e4        0x4 C:/MinGW64/mingw64-6.3.0/bin/../lib/gcc/x86_64-w64-mingw32/6.3.0/../../../../x86_64-w64-mingw32/lib/../lib32/libmsvcrt.a(dakes01100.o)
                0x000000000041b1e4                _imp__fputc
 .idata$5       0x000000000041b1e8        0x4 C:/MinGW64/mingw64-6.3.0/bin/../lib/gcc/x86_64-w64-mingw32/6.3.0/../../../../x86_64-w64-mingw32/lib/../lib32/libmsvcrt.a(dakes01104.o)
                0x000000000041b1e8                _imp__fread
 .idata$5       0x000000000041b1ec        0x4 C:/MinGW64/mingw64-6.3.0/bin/../lib/gcc/x86_64-w64-mingw32/6.3.0/../../../../x86_64-w64-mingw32/lib/../lib32/libmsvcrt.a(dakes01105.o)
                0x000000000041b1ec                _imp__free
 .idata$5       0x000000000041b1f0        0x4 C:/MinGW64/mingw64-6.3.0/bin/../lib/gcc/x86_64-w64-mingw32/6.3.0/../../../../x86_64-w64-mingw32/lib/../lib32/libmsvcrt.a(dakes01117.o)
                0x000000000041b1f0                _imp__fwrite
 .idata$5       0x000000000041b1f4        0x4 C:/MinGW64/mingw64-6.3.0/bin/../lib/gcc/x86_64-w64-mingw32/6.3.0/../../../../x86_64-w64-mingw32/lib/../lib32/libmsvcrt.a(dakes01162.o)
                0x000000000041b1f4                _imp__log10
 .idata$5       0x000000000041b1f8        0x4 C:/MinGW64/mingw64-6.3.0/bin/../lib/gcc/x86_64-w64-mingw32/6.3.0/../../../../x86_64-w64-mingw32/lib/../lib32/libmsvcrt.a(dakes01164.o)
                0x000000000041b1f8                _imp__malloc
 .idata$5       0x000000000041b1fc        0x4 C:/MinGW64/mingw64-6.3.0/bin/../lib/gcc/x86_64-w64-mingw32/6.3.0/../../../../x86_64-w64-mingw32/lib/../lib32/libmsvcrt.a(dakes01172.o)
                0x000000000041b1fc                _imp__memcpy
 .idata$5       0x000000000041b200        0x4 C:/MinGW64/mingw64-6.3.0/bin/../lib/gcc/x86_64-w64-mingw32/6.3.0/../../../../x86_64-w64-mingw32/lib/../lib32/libmsvcrt.a(dakes01175.o)
                0x000000000041b200                _imp__memset
 .idata$5       0x000000000041b204        0x4 C:/MinGW64/mingw64-6.3.0/bin/../lib/gcc/x86_64-w64-mingw32/6.3.0/../../../../x86_64-w64-mingw32/lib/../lib32/libmsvcrt.a(dakes01200.o)
                0x000000000041b204                _imp__signal
 .idata$5       0x000000000041b208        0x4 C:/MinGW64/mingw64-6.3.0/bin/../lib/gcc/x86_64-w64-mingw32/6.3.0/../../../../x86_64-w64-mingw32/lib/../lib32/libmsvcrt.a(dakes01218.o)
                0x000000000041b208                _imp__strlen
 .idata$5       0x000000000041b20c        0x4 C:/MinGW64/mingw64-6.3.0/bin/../lib/gcc/x86_64-w64-mingw32/6.3.0/../../../../x86_64-w64-mingw32/lib/../lib32/libmsvcrt.a(dakes01221.o)
                0x000000000041b20c                _imp__strncmp
 .idata$5       0x000000000041b210        0x4 C:/MinGW64/mingw64-6.3.0/bin/../lib/gcc/x86_64-w64-mingw32/6.3.0/../../../../x86_64-w64-mingw32/lib/../lib32/libmsvcrt.a(dakes01254.o)
                0x000000000041b210                _imp__vfprintf
 .idata$5       0x000000000041b214        0x4 C:/MinGW64/mingw64-6.3.0/bin/../lib/gcc/x86_64-w64-mingw32/6.3.0/../../../../x86_64-w64-mingw32/lib/../lib32/libmsvcrt.a(dakes01258.o)
                0x000000000041b214                _imp__vprintf
 .idata$5       0x000000000041b218        0x4 C:/MinGW64/mingw64-6.3.0/bin/../lib/gcc/x86_64-w64-mingw32/6.3.0/../../../../x86_64-w64-mingw32/lib/../lib32/libmsvcrt.a(daket.o)
                0x000000000041b21c                __IAT_end__ = .
 SORT(*)(.idata$6)
 .idata$6       0x000000000041b21c       0x18 C:/MinGW64/mingw64-6.3.0/bin/../lib/gcc/x86_64-w64-mingw32/6.3.0/../../../../x86_64-w64-mingw32/lib/../lib32/libkernel32.a(dkzds00214.o)
 .idata$6       0x000000000041b234       0x18 C:/MinGW64/mingw64-6.3.0/bin/../lib/gcc/x86_64-w64-mingw32/6.3.0/../../../../x86_64-w64-mingw32/lib/../lib32/libkernel32.a(dkzds00242.o)
 .idata$6       0x000000000041b24c       0x14 C:/MinGW64/mingw64-6.3.0/bin/../lib/gcc/x86_64-w64-mingw32/6.3.0/../../../../x86_64-w64-mingw32/lib/../lib32/libkernel32.a(dkzds00455.o)
 .idata$6       0x000000000041b260       0x16 C:/MinGW64/mingw64-6.3.0/bin/../lib/gcc/x86_64-w64-mingw32/6.3.0/../../../../x86_64-w64-mingw32/lib/../lib32/libkernel32.a(dkzds00456.o)
 .idata$6       0x000000000041b276       0x16 C:/MinGW64/mingw64-6.3.0/bin/../lib/gcc/x86_64-w64-mingw32/6.3.0/../../../../x86_64-w64-mingw32/lib/../lib32/libkernel32.a(dkzds00460.o)
 .idata$6       0x000000000041b28c       0x10 C:/MinGW64/mingw64-6.3.0/bin/../lib/gcc/x86_64-w64-mingw32/6.3.0/../../../../x86_64-w64-mingw32/lib/../lib32/libkernel32.a(dkzds00518.o)
 .idata$6       0x000000000041b29c       0x14 C:/MinGW64/mingw64-6.3.0/bin/../lib/gcc/x86_64-w64-mingw32/6.3.0/../../../../x86_64-w64-mingw32/lib/../lib32/libkernel32.a(dkzds00536.o)
 .idata$6       0x000000000041b2b0       0x12 C:/MinGW64/mingw64-6.3.0/bin/../lib/gcc/x86_64-w64-mingw32/6.3.0/../../../../x86_64-w64-mingw32/lib/../lib32/libkernel32.a(dkzds00584.o)
 .idata$6       0x000000000041b2c2       0x12 C:/MinGW64/mingw64-6.3.0/bin/../lib/gcc/x86_64-w64-mingw32/6.3.0/../../../../x86_64-w64-mingw32/lib/../lib32/libkernel32.a(dkzds00615.o)
 .idata$6       0x000000000041b2d4       0x1a C:/MinGW64/mingw64-6.3.0/bin/../lib/gcc/x86_64-w64-mingw32/6.3.0/../../../../x86_64-w64-mingw32/lib/../lib32/libkernel32.a(dkzds00638.o)
 .idata$6       0x000000000041b2ee       0x10 C:/MinGW64/mingw64-6.3.0/bin/../lib/gcc/x86_64-w64-mingw32/6.3.0/../../../../x86_64-w64-mingw32/lib/../lib32/libkernel32.a(dkzds00666.o)
 .idata$6       0x000000000041b2fe       0x1c C:/MinGW64/mingw64-6.3.0/bin/../lib/gcc/x86_64-w64-mingw32/6.3.0/../../../../x86_64-w64-mingw32/lib/../lib32/libkernel32.a(dkzds00750.o)
 .idata$6       0x000000000041b31a       0x18 C:/MinGW64/mingw64-6.3.0/bin/../lib/gcc/x86_64-w64-mingw32/6.3.0/../../../../x86_64-w64-mingw32/lib/../lib32/libkernel32.a(dkzds00836.o)
 .idata$6       0x000000000041b332       0x1a C:/MinGW64/mingw64-6.3.0/bin/../lib/gcc/x86_64-w64-mingw32/6.3.0/../../../../x86_64-w64-mingw32/lib/../lib32/libkernel32.a(dkzds00949.o)
 .idata$6       0x000000000041b34c       0x1e C:/MinGW64/mingw64-6.3.0/bin/../lib/gcc/x86_64-w64-mingw32/6.3.0/../../../../x86_64-w64-mingw32/lib/../lib32/libkernel32.a(dkzds01162.o)
 .idata$6       0x000000000041b36a        0x8 C:/MinGW64/mingw64-6.3.0/bin/../lib/gcc/x86_64-w64-mingw32/6.3.0/../../../../x86_64-w64-mingw32/lib/../lib32/libkernel32.a(dkzds01175.o)
 .idata$6       0x000000000041b372       0x14 C:/MinGW64/mingw64-6.3.0/bin/../lib/gcc/x86_64-w64-mingw32/6.3.0/../../../../x86_64-w64-mingw32/lib/../lib32/libkernel32.a(dkzds01189.o)
 .idata$6       0x000000000041b386        0xe C:/MinGW64/mingw64-6.3.0/bin/../lib/gcc/x86_64-w64-mingw32/6.3.0/../../../../x86_64-w64-mingw32/lib/../lib32/libkernel32.a(dkzds01196.o)
 .idata$6       0x000000000041b394       0x1c C:/MinGW64/mingw64-6.3.0/bin/../lib/gcc/x86_64-w64-mingw32/6.3.0/../../../../x86_64-w64-mingw32/lib/../lib32/libkernel32.a(dkzds01209.o)
 .idata$6       0x000000000041b3b0       0x12 C:/MinGW64/mingw64-6.3.0/bin/../lib/gcc/x86_64-w64-mingw32/6.3.0/../../../../x86_64-w64-mingw32/lib/../lib32/libkernel32.a(dkzds01242.o)
 .idata$6       0x000000000041b3c2       0x10 C:/MinGW64/mingw64-6.3.0/bin/../lib/gcc/x86_64-w64-mingw32/6.3.0/../../../../x86_64-w64-mingw32/lib/../lib32/libkernel32.a(dkzds01245.o)
 .idata$6       0x000000000041b3d2        0xe C:/MinGW64/mingw64-6.3.0/bin/../lib/gcc/x86_64-w64-mingw32/6.3.0/../../../../x86_64-w64-mingw32/lib/../lib32/libmsvcrt.a(dakes00055.o)
 .idata$6       0x000000000041b3e0       0x10 C:/MinGW64/mingw64-6.3.0/bin/../lib/gcc/x86_64-w64-mingw32/6.3.0/../../../../x86_64-w64-mingw32/lib/../lib32/libmsvcrt.a(dakes00058.o)
 .idata$6       0x000000000041b3f0        0xc C:/MinGW64/mingw64-6.3.0/bin/../lib/gcc/x86_64-w64-mingw32/6.3.0/../../../../x86_64-w64-mingw32/lib/../lib32/libmsvcrt.a(dakes00059.o)
 .idata$6       0x000000000041b3fc       0x10 C:/MinGW64/mingw64-6.3.0/bin/../lib/gcc/x86_64-w64-mingw32/6.3.0/../../../../x86_64-w64-mingw32/lib/../lib32/libmsvcrt.a(dakes00068.o)
 .idata$6       0x000000000041b40c       0x12 C:/MinGW64/mingw64-6.3.0/bin/../lib/gcc/x86_64-w64-mingw32/6.3.0/../../../../x86_64-w64-mingw32/lib/../lib32/libmsvcrt.a(dakes00104.o)
 .idata$6       0x000000000041b41e       0x14 C:/MinGW64/mingw64-6.3.0/bin/../lib/gcc/x86_64-w64-mingw32/6.3.0/../../../../x86_64-w64-mingw32/lib/../lib32/libmsvcrt.a(dakes00107.o)
 .idata$6       0x000000000041b432        0xa C:/MinGW64/mingw64-6.3.0/bin/../lib/gcc/x86_64-w64-mingw32/6.3.0/../../../../x86_64-w64-mingw32/lib/../lib32/libmsvcrt.a(dakes00123.o)
 .idata$6       0x000000000041b43c        0xe C:/MinGW64/mingw64-6.3.0/bin/../lib/gcc/x86_64-w64-mingw32/6.3.0/../../../../x86_64-w64-mingw32/lib/../lib32/libmsvcrt.a(dakes00144.o)
 .idata$6       0x000000000041b44a        0xa C:/MinGW64/mingw64-6.3.0/bin/../lib/gcc/x86_64-w64-mingw32/6.3.0/../../../../x86_64-w64-mingw32/lib/../lib32/libmsvcrt.a(dakes00161.o)
 .idata$6       0x000000000041b454        0xa C:/MinGW64/mingw64-6.3.0/bin/../lib/gcc/x86_64-w64-mingw32/6.3.0/../../../../x86_64-w64-mingw32/lib/../lib32/libmsvcrt.a(dakes00222.o)
 .idata$6       0x000000000041b45e        0xa C:/MinGW64/mingw64-6.3.0/bin/../lib/gcc/x86_64-w64-mingw32/6.3.0/../../../../x86_64-w64-mingw32/lib/../lib32/libmsvcrt.a(dakes00275.o)
 .idata$6       0x000000000041b468        0xc C:/MinGW64/mingw64-6.3.0/bin/../lib/gcc/x86_64-w64-mingw32/6.3.0/../../../../x86_64-w64-mingw32/lib/../lib32/libmsvcrt.a(dakes00352.o)
 .idata$6       0x000000000041b474        0x8 C:/MinGW64/mingw64-6.3.0/bin/../lib/gcc/x86_64-w64-mingw32/6.3.0/../../../../x86_64-w64-mingw32/lib/../lib32/libmsvcrt.a(dakes00356.o)
 .idata$6       0x000000000041b47c        0x8 C:/MinGW64/mingw64-6.3.0/bin/../lib/gcc/x86_64-w64-mingw32/6.3.0/../../../../x86_64-w64-mingw32/lib/../lib32/libmsvcrt.a(dakes00458.o)
 .idata$6       0x000000000041b484        0xa C:/MinGW64/mingw64-6.3.0/bin/../lib/gcc/x86_64-w64-mingw32/6.3.0/../../../../x86_64-w64-mingw32/lib/../lib32/libmsvcrt.a(dakes00629.o)
 .idata$6       0x000000000041b48e        0xa C:/MinGW64/mingw64-6.3.0/bin/../lib/gcc/x86_64-w64-mingw32/6.3.0/../../../../x86_64-w64-mingw32/lib/../lib32/libmsvcrt.a(dakes00844.o)
 .idata$6       0x000000000041b498        0x8 C:/MinGW64/mingw64-6.3.0/bin/../lib/gcc/x86_64-w64-mingw32/6.3.0/../../../../x86_64-w64-mingw32/lib/../lib32/libmsvcrt.a(dakes01057.o)
 .idata$6       0x000000000041b4a0        0xa C:/MinGW64/mingw64-6.3.0/bin/../lib/gcc/x86_64-w64-mingw32/6.3.0/../../../../x86_64-w64-mingw32/lib/../lib32/libmsvcrt.a(dakes01071.o)
 .idata$6       0x000000000041b4aa        0x8 C:/MinGW64/mingw64-6.3.0/bin/../lib/gcc/x86_64-w64-mingw32/6.3.0/../../../../x86_64-w64-mingw32/lib/../lib32/libmsvcrt.a(dakes01082.o)
 .idata$6       0x000000000041b4b2        0xa C:/MinGW64/mingw64-6.3.0/bin/../lib/gcc/x86_64-w64-mingw32/6.3.0/../../../../x86_64-w64-mingw32/lib/../lib32/libmsvcrt.a(dakes01085.o)
 .idata$6       0x000000000041b4bc        0x8 C:/MinGW64/mingw64-6.3.0/bin/../lib/gcc/x86_64-w64-mingw32/6.3.0/../../../../x86_64-w64-mingw32/lib/../lib32/libmsvcrt.a(dakes01086.o)
 .idata$6       0x000000000041b4c4        0x8 C:/MinGW64/mingw64-6.3.0/bin/../lib/gcc/x86_64-w64-mingw32/6.3.0/../../../../x86_64-w64-mingw32/lib/../lib32/libmsvcrt.a(dakes01091.o)
 .idata$6       0x000000000041b4cc        0x8 C:/MinGW64/mingw64-6.3.0/bin/../lib/gcc/x86_64-w64-mingw32/6.3.0/../../../../x86_64-w64-mingw32/lib/../lib32/libmsvcrt.a(dakes01096.o)
 .idata$6       0x000000000041b4d4        0xa C:/MinGW64/mingw64-6.3.0/bin/../lib/gcc/x86_64-w64-mingw32/6.3.0/../../../../x86_64-w64-mingw32/lib/../lib32/libmsvcrt.a(dakes01098.o)
 .idata$6       0x000000000041b4de        0x8 C:/MinGW64/mingw64-6.3.0/bin/../lib/gcc/x86_64-w64-mingw32/6.3.0/../../../../x86_64-w64-mingw32/lib/../lib32/libmsvcrt.a(dakes01100.o)
 .idata$6       0x000000000041b4e6        0x8 C:/MinGW64/mingw64-6.3.0/bin/../lib/gcc/x86_64-w64-mingw32/6.3.0/../../../../x86_64-w64-mingw32/lib/../lib32/libmsvcrt.a(dakes01104.o)
 .idata$6       0x000000000041b4ee        0x8 C:/MinGW64/mingw64-6.3.0/bin/../lib/gcc/x86_64-w64-mingw32/6.3.0/../../../../x86_64-w64-mingw32/lib/../lib32/libmsvcrt.a(dakes01105.o)
 .idata$6       0x000000000041b4f6        0xa C:/MinGW64/mingw64-6.3.0/bin/../lib/gcc/x86_64-w64-mingw32/6.3.0/../../../../x86_64-w64-mingw32/lib/../lib32/libmsvcrt.a(dakes01117.o)
 .idata$6       0x000000000041b500        0x8 C:/MinGW64/mingw64-6.3.0/bin/../lib/gcc/x86_64-w64-mingw32/6.3.0/../../../../x86_64-w64-mingw32/lib/../lib32/libmsvcrt.a(dakes01162.o)
 .idata$6       0x000000000041b508        0xa C:/MinGW64/mingw64-6.3.0/bin/../lib/gcc/x86_64-w64-mingw32/6.3.0/../../../../x86_64-w64-mingw32/lib/../lib32/libmsvcrt.a(dakes01164.o)
 .idata$6       0x000000000041b512        0xa C:/MinGW64/mingw64-6.3.0/bin/../lib/gcc/x86_64-w64-mingw32/6.3.0/../../../../x86_64-w64-mingw32/lib/../lib32/libmsvcrt.a(dakes01172.o)
 .idata$6       0x000000000041b51c        0xa C:/MinGW64/mingw64-6.3.0/bin/../lib/gcc/x86_64-w64-mingw32/6.3.0/../../../../x86_64-w64-mingw32/lib/../lib32/libmsvcrt.a(dakes01175.o)
 .idata$6       0x000000000041b526        0xa C:/MinGW64/mingw64-6.3.0/bin/../lib/gcc/x86_64-w64-mingw32/6.3.0/../../../../x86_64-w64-mingw32/lib/../lib32/libmsvcrt.a(dakes01200.o)
 .idata$6       0x000000000041b530        0xa C:/MinGW64/mingw64-6.3.0/bin/../lib/gcc/x86_64-w64-mingw32/6.3.0/../../../../x86_64-w64-mingw32/lib/../lib32/libmsvcrt.a(dakes01218.o)
 .idata$6       0x000000000041b53a        0xa C:/MinGW64/mingw64-6.3.0/bin/../lib/gcc/x86_64-w64-mingw32/6.3.0/../../../../x86_64-w64-mingw32/lib/../lib32/libmsvcrt.a(dakes01221.o)
 .idata$6       0x000000000041b544        0xc C:/MinGW64/mingw64-6.3.0/bin/../lib/gcc/x86_64-w64-mingw32/6.3.0/../../../../x86_64-w64-mingw32/lib/../lib32/libmsvcrt.a(dakes01254.o)
 .idata$6       0x000000000041b550        0xa C:/MinGW64/mingw64-6.3.0/bin/../lib/gcc/x86_64-w64-mingw32/6.3.0/../../../../x86_64-w64-mingw32/lib/../lib32/libmsvcrt.a(dakes01258.o)
 SORT(*)(.idata$7)
 *fill*         0x000000000041b55a        0x2 
 .idata$7       0x000000000041b55c        0x4 C:/MinGW64/mingw64-6.3.0/bin/../lib/gcc/x86_64-w64-mingw32/6.3.0/../../../../x86_64-w64-mingw32/lib/../lib32/libkernel32.a(dkzds00214.o)
 .idata$7       0x000000000041b560        0x4 C:/MinGW64/mingw64-6.3.0/bin/../lib/gcc/x86_64-w64-mingw32/6.3.0/../../../../x86_64-w64-mingw32/lib/../lib32/libkernel32.a(dkzds00242.o)
 .idata$7       0x000000000041b564        0x4 C:/MinGW64/mingw64-6.3.0/bin/../lib/gcc/x86_64-w64-mingw32/6.3.0/../../../../x86_64-w64-mingw32/lib/../lib32/libkernel32.a(dkzds00455.o)
 .idata$7       0x000000000041b568        0x4 C:/MinGW64/mingw64-6.3.0/bin/../lib/gcc/x86_64-w64-mingw32/6.3.0/../../../../x86_64-w64-mingw32/lib/../lib32/libkernel32.a(dkzds00456.o)
 .idata$7       0x000000000041b56c        0x4 C:/MinGW64/mingw64-6.3.0/bin/../lib/gcc/x86_64-w64-mingw32/6.3.0/../../../../x86_64-w64-mingw32/lib/../lib32/libkernel32.a(dkzds00460.o)
 .idata$7       0x000000000041b570        0x4 C:/MinGW64/mingw64-6.3.0/bin/../lib/gcc/x86_64-w64-mingw32/6.3.0/../../../../x86_64-w64-mingw32/lib/../lib32/libkernel32.a(dkzds00518.o)
 .idata$7       0x000000000041b574        0x4 C:/MinGW64/mingw64-6.3.0/bin/../lib/gcc/x86_64-w64-mingw32/6.3.0/../../../../x86_64-w64-mingw32/lib/../lib32/libkernel32.a(dkzds00536.o)
 .idata$7       0x000000000041b578        0x4 C:/MinGW64/mingw64-6.3.0/bin/../lib/gcc/x86_64-w64-mingw32/6.3.0/../../../../x86_64-w64-mingw32/lib/../lib32/libkernel32.a(dkzds00584.o)
 .idata$7       0x000000000041b57c        0x4 C:/MinGW64/mingw64-6.3.0/bin/../lib/gcc/x86_64-w64-mingw32/6.3.0/../../../../x86_64-w64-mingw32/lib/../lib32/libkernel32.a(dkzds00615.o)
 .idata$7       0x000000000041b580        0x4 C:/MinGW64/mingw64-6.3.0/bin/../lib/gcc/x86_64-w64-mingw32/6.3.0/../../../../x86_64-w64-mingw32/lib/../lib32/libkernel32.a(dkzds00638.o)
 .idata$7       0x000000000041b584        0x4 C:/MinGW64/mingw64-6.3.0/bin/../lib/gcc/x86_64-w64-mingw32/6.3.0/../../../../x86_64-w64-mingw32/lib/../lib32/libkernel32.a(dkzds00666.o)
 .idata$7       0x000000000041b588        0x4 C:/MinGW64/mingw64-6.3.0/bin/../lib/gcc/x86_64-w64-mingw32/6.3.0/../../../../x86_64-w64-mingw32/lib/../lib32/libkernel32.a(dkzds00750.o)
 .idata$7       0x000000000041b58c        0x4 C:/MinGW64/mingw64-6.3.0/bin/../lib/gcc/x86_64-w64-mingw32/6.3.0/../../../../x86_64-w64-mingw32/lib/../lib32/libkernel32.a(dkzds00836.o)
 .idata$7       0x000000000041b590        0x4 C:/MinGW64/mingw64-6.3.0/bin/../lib/gcc/x86_64-w64-mingw32/6.3.0/../../../../x86_64-w64-mingw32/lib/../lib32/libkernel32.a(dkzds00949.o)
 .idata$7       0x000000000041b594        0x4 C:/MinGW64/mingw64-6.3.0/bin/../lib/gcc/x86_64-w64-mingw32/6.3.0/../../../../x86_64-w64-mingw32/lib/../lib32/libkernel32.a(dkzds01162.o)
 .idata$7       0x000000000041b598        0x4 C:/MinGW64/mingw64-6.3.0/bin/../lib/gcc/x86_64-w64-mingw32/6.3.0/../../../../x86_64-w64-mingw32/lib/../lib32/libkernel32.a(dkzds01175.o)
 .idata$7       0x000000000041b59c        0x4 C:/MinGW64/mingw64-6.3.0/bin/../lib/gcc/x86_64-w64-mingw32/6.3.0/../../../../x86_64-w64-mingw32/lib/../lib32/libkernel32.a(dkzds01189.o)
 .idata$7       0x000000000041b5a0        0x4 C:/MinGW64/mingw64-6.3.0/bin/../lib/gcc/x86_64-w64-mingw32/6.3.0/../../../../x86_64-w64-mingw32/lib/../lib32/libkernel32.a(dkzds01196.o)
 .idata$7       0x000000000041b5a4        0x4 C:/MinGW64/mingw64-6.3.0/bin/../lib/gcc/x86_64-w64-mingw32/6.3.0/../../../../x86_64-w64-mingw32/lib/../lib32/libkernel32.a(dkzds01209.o)
 .idata$7       0x000000000041b5a8        0x4 C:/MinGW64/mingw64-6.3.0/bin/../lib/gcc/x86_64-w64-mingw32/6.3.0/../../../../x86_64-w64-mingw32/lib/../lib32/libkernel32.a(dkzds01242.o)
 .idata$7       0x000000000041b5ac        0x4 C:/MinGW64/mingw64-6.3.0/bin/../lib/gcc/x86_64-w64-mingw32/6.3.0/../../../../x86_64-w64-mingw32/lib/../lib32/libkernel32.a(dkzds01245.o)
 .idata$7       0x000000000041b5b0       0x10 C:/MinGW64/mingw64-6.3.0/bin/../lib/gcc/x86_64-w64-mingw32/6.3.0/../../../../x86_64-w64-mingw32/lib/../lib32/libkernel32.a(dkzdt.o)
                0x000000000041b5b0                _lib32_libkernel32_a_iname
 .idata$7       0x000000000041b5c0        0x4 C:/MinGW64/mingw64-6.3.0/bin/../lib/gcc/x86_64-w64-mingw32/6.3.0/../../../../x86_64-w64-mingw32/lib/../lib32/libmsvcrt.a(dakes00055.o)
 .idata$7       0x000000000041b5c4        0x4 C:/MinGW64/mingw64-6.3.0/bin/../lib/gcc/x86_64-w64-mingw32/6.3.0/../../../../x86_64-w64-mingw32/lib/../lib32/libmsvcrt.a(dakes00058.o)
 .idata$7       0x000000000041b5c8        0x4 C:/MinGW64/mingw64-6.3.0/bin/../lib/gcc/x86_64-w64-mingw32/6.3.0/../../../../x86_64-w64-mingw32/lib/../lib32/libmsvcrt.a(dakes00059.o)
 .idata$7       0x000000000041b5cc        0x4 C:/MinGW64/mingw64-6.3.0/bin/../lib/gcc/x86_64-w64-mingw32/6.3.0/../../../../x86_64-w64-mingw32/lib/../lib32/libmsvcrt.a(dakes00068.o)
 .idata$7       0x000000000041b5d0        0x4 C:/MinGW64/mingw64-6.3.0/bin/../lib/gcc/x86_64-w64-mingw32/6.3.0/../../../../x86_64-w64-mingw32/lib/../lib32/libmsvcrt.a(dakes00104.o)
 .idata$7       0x000000000041b5d4        0x4 C:/MinGW64/mingw64-6.3.0/bin/../lib/gcc/x86_64-w64-mingw32/6.3.0/../../../../x86_64-w64-mingw32/lib/../lib32/libmsvcrt.a(dakes00107.o)
 .idata$7       0x000000000041b5d8        0x4 C:/MinGW64/mingw64-6.3.0/bin/../lib/gcc/x86_64-w64-mingw32/6.3.0/../../../../x86_64-w64-mingw32/lib/../lib32/libmsvcrt.a(dakes00123.o)
 .idata$7       0x000000000041b5dc        0x4 C:/MinGW64/mingw64-6.3.0/bin/../lib/gcc/x86_64-w64-mingw32/6.3.0/../../../../x86_64-w64-mingw32/lib/../lib32/libmsvcrt.a(dakes00144.o)
 .idata$7       0x000000000041b5e0        0x4 C:/MinGW64/mingw64-6.3.0/bin/../lib/gcc/x86_64-w64-mingw32/6.3.0/../../../../x86_64-w64-mingw32/lib/../lib32/libmsvcrt.a(dakes00161.o)
 .idata$7       0x000000000041b5e4        0x4 C:/MinGW64/mingw64-6.3.0/bin/../lib/gcc/x86_64-w64-mingw32/6.3.0/../../../../x86_64-w64-mingw32/lib/../lib32/libmsvcrt.a(dakes00222.o)
 .idata$7       0x000000000041b5e8        0x4 C:/MinGW64/mingw64-6.3.0/bin/../lib/gcc/x86_64-w64-mingw32/6.3.0/../../../../x86_64-w64-mingw32/lib/../lib32/libmsvcrt.a(dakes00275.o)
 .idata$7       0x000000000041b5ec        0x4 C:/MinGW64/mingw64-6.3.0/bin/../lib/gcc/x86_64-w64-mingw32/6.3.0/../../../../x86_64-w64-mingw32/lib/../lib32/libmsvcrt.a(dakes00352.o)
 .idata$7       0x000000000041b5f0        0x4 C:/MinGW64/mingw64-6.3.0/bin/../lib/gcc/x86_64-w64-mingw32/6.3.0/../../../../x86_64-w64-mingw32/lib/../lib32/libmsvcrt.a(dakes00356.o)
 .idata$7       0x000000000041b5f4        0x4 C:/MinGW64/mingw64-6.3.0/bin/../lib/gcc/x86_64-w64-mingw32/6.3.0/../../../../x86_64-w64-mingw32/lib/../lib32/libmsvcrt.a(dakes00458.o)
 .idata$7       0x000000000041b5f8        0x4 C:/MinGW64/mingw64-6.3.0/bin/../lib/gcc/x86_64-w64-mingw32/6.3.0/../../../../x86_64-w64-mingw32/lib/../lib32/libmsvcrt.a(dakes00629.o)
 .idata$7       0x000000000041b5fc        0x4 C:/MinGW64/mingw64-6.3.0/bin/../lib/gcc/x86_64-w64-mingw32/6.3.0/../../../../x86_64-w64-mingw32/lib/../lib32/libmsvcrt.a(dakes00844.o)
 .idata$7       0x000000000041b600        0x4 C:/MinGW64/mingw64-6.3.0/bin/../lib/gcc/x86_64-w64-mingw32/6.3.0/../../../../x86_64-w64-mingw32/lib/../lib32/libmsvcrt.a(dakes01057.o)
 .idata$7       0x000000000041b604        0x4 C:/MinGW64/mingw64-6.3.0/bin/../lib/gcc/x86_64-w64-mingw32/6.3.0/../../../../x86_64-w64-mingw32/lib/../lib32/libmsvcrt.a(dakes01071.o)
 .idata$7       0x000000000041b608        0x4 C:/MinGW64/mingw64-6.3.0/bin/../lib/gcc/x86_64-w64-mingw32/6.3.0/../../../../x86_64-w64-mingw32/lib/../lib32/libmsvcrt.a(dakes01082.o)
 .idata$7       0x000000000041b60c        0x4 C:/MinGW64/mingw64-6.3.0/bin/../lib/gcc/x86_64-w64-mingw32/6.3.0/../../../../x86_64-w64-mingw32/lib/../lib32/libmsvcrt.a(dakes01085.o)
 .idata$7       0x000000000041b610        0x4 C:/MinGW64/mingw64-6.3.0/bin/../lib/gcc/x86_64-w64-mingw32/6.3.0/../../../../x86_64-w64-mingw32/lib/../lib32/libmsvcrt.a(dakes01086.o)
 .idata$7       0x000000000041b614        0x4 C:/MinGW64/mingw64-6.3.0/bin/../lib/gcc/x86_64-w64-mingw32/6.3.0/../../../../x86_64-w64-mingw32/lib/../lib32/libmsvcrt.a(dakes01091.o)
 .idata$7       0x000000000041b618        0x4 C:/MinGW64/mingw64-6.3.0/bin/../lib/gcc/x86_64-w64-mingw32/6.3.0/../../../../x86_64-w64-mingw32/lib/../lib32/libmsvcrt.a(dakes01096.o)
 .idata$7       0x000000000041b61c        0x4 C:/MinGW64/mingw64-6.3.0/bin/../lib/gcc/x86_64-w64-mingw32/6.3.0/../../../../x86_64-w64-mingw32/lib/../lib32/libmsvcrt.a(dakes01098.o)
 .idata$7       0x000000000041b620        0x4 C:/MinGW64/mingw64-6.3.0/bin/../lib/gcc/x86_64-w64-mingw32/6.3.0/../../../../x86_64-w64-mingw32/lib/../lib32/libmsvcrt.a(dakes01100.o)
 .idata$7       0x000000000041b624        0x4 C:/MinGW64/mingw64-6.3.0/bin/../lib/gcc/x86_64-w64-mingw32/6.3.0/../../../../x86_64-w64-mingw32/lib/../lib32/libmsvcrt.a(dakes01104.o)
 .idata$7       0x000000000041b628        0x4 C:/MinGW64/mingw64-6.3.0/bin/../lib/gcc/x86_64-w64-mingw32/6.3.0/../../../../x86_64-w64-mingw32/lib/../lib32/libmsvcrt.a(dakes01105.o)
 .idata$7       0x000000000041b62c        0x4 C:/MinGW64/mingw64-6.3.0/bin/../lib/gcc/x86_64-w64-mingw32/6.3.0/../../../../x86_64-w64-mingw32/lib/../lib32/libmsvcrt.a(dakes01117.o)
 .idata$7       0x000000000041b630        0x4 C:/MinGW64/mingw64-6.3.0/bin/../lib/gcc/x86_64-w64-mingw32/6.3.0/../../../../x86_64-w64-mingw32/lib/../lib32/libmsvcrt.a(dakes01162.o)
 .idata$7       0x000000000041b634        0x4 C:/MinGW64/mingw64-6.3.0/bin/../lib/gcc/x86_64-w64-mingw32/6.3.0/../../../../x86_64-w64-mingw32/lib/../lib32/libmsvcrt.a(dakes01164.o)
 .idata$7       0x000000000041b638        0x4 C:/MinGW64/mingw64-6.3.0/bin/../lib/gcc/x86_64-w64-mingw32/6.3.0/../../../../x86_64-w64-mingw32/lib/../lib32/libmsvcrt.a(dakes01172.o)
 .idata$7       0x000000000041b63c        0x4 C:/MinGW64/mingw64-6.3.0/bin/../lib/gcc/x86_64-w64-mingw32/6.3.0/../../../../x86_64-w64-mingw32/lib/../lib32/libmsvcrt.a(dakes01175.o)
 .idata$7       0x000000000041b640        0x4 C:/MinGW64/mingw64-6.3.0/bin/../lib/gcc/x86_64-w64-mingw32/6.3.0/../../../../x86_64-w64-mingw32/lib/../lib32/libmsvcrt.a(dakes01200.o)
 .idata$7       0x000000000041b644        0x4 C:/MinGW64/mingw64-6.3.0/bin/../lib/gcc/x86_64-w64-mingw32/6.3.0/../../../../x86_64-w64-mingw32/lib/../lib32/libmsvcrt.a(dakes01218.o)
 .idata$7       0x000000000041b648        0x4 C:/MinGW64/mingw64-6.3.0/bin/../lib/gcc/x86_64-w64-mingw32/6.3.0/../../../../x86_64-w64-mingw32/lib/../lib32/libmsvcrt.a(dakes01221.o)
 .idata$7       0x000000000041b64c        0x4 C:/MinGW64/mingw64-6.3.0/bin/../lib/gcc/x86_64-w64-mingw32/6.3.0/../../../../x86_64-w64-mingw32/lib/../lib32/libmsvcrt.a(dakes01254.o)
 .idata$7       0x000000000041b650        0x4 C:/MinGW64/mingw64-6.3.0/bin/../lib/gcc/x86_64-w64-mingw32/6.3.0/../../../../x86_64-w64-mingw32/lib/../lib32/libmsvcrt.a(dakes01258.o)
 .idata$7       0x000000000041b654        0xc C:/MinGW64/mingw64-6.3.0/bin/../lib/gcc/x86_64-w64-mingw32/6.3.0/../../../../x86_64-w64-mingw32/lib/../lib32/libmsvcrt.a(daket.o)
                0x000000000041b654                _lib32_libmsvcrt_a_iname

.CRT            0x000000000041c000      0x200
                0x000000000041c000                ___crt_xc_start__ = .
 *(SORT(.CRT$XC*))
 .CRT$XCA       0x000000000041c000        0x4 C:/MinGW64/mingw64-6.3.0/bin/../lib/gcc/x86_64-w64-mingw32/6.3.0/../../../../x86_64-w64-mingw32/lib/../lib32/libmingw32.a(lib32_libmingw32_a-cinitexe.o)
                0x000000000041c000                __xc_a
 .CRT$XCAA      0x000000000041c004        0x4 C:/MinGW64/mingw64-6.3.0/bin/../lib/gcc/x86_64-w64-mingw32/6.3.0/../../../../x86_64-w64-mingw32/lib/../lib32/crt2.o
                0x000000000041c004                mingw_pcppinit
 .CRT$XCZ       0x000000000041c008        0x4 C:/MinGW64/mingw64-6.3.0/bin/../lib/gcc/x86_64-w64-mingw32/6.3.0/../../../../x86_64-w64-mingw32/lib/../lib32/libmingw32.a(lib32_libmingw32_a-cinitexe.o)
                0x000000000041c008                __xc_z
                0x000000000041c00c                ___crt_xc_end__ = .
                0x000000000041c00c                ___crt_xi_start__ = .
 *(SORT(.CRT$XI*))
 .CRT$XIA       0x000000000041c00c        0x4 C:/MinGW64/mingw64-6.3.0/bin/../lib/gcc/x86_64-w64-mingw32/6.3.0/../../../../x86_64-w64-mingw32/lib/../lib32/libmingw32.a(lib32_libmingw32_a-cinitexe.o)
                0x000000000041c00c                __xi_a
 .CRT$XIAA      0x000000000041c010        0x4 C:/MinGW64/mingw64-6.3.0/bin/../lib/gcc/x86_64-w64-mingw32/6.3.0/../../../../x86_64-w64-mingw32/lib/../lib32/crt2.o
                0x000000000041c010                mingw_pcinit
 .CRT$XIC       0x000000000041c014        0x4 C:/MinGW64/mingw64-6.3.0/bin/../lib/gcc/x86_64-w64-mingw32/6.3.0/../../../../x86_64-w64-mingw32/lib/../lib32/libmingw32.a(lib32_libmingw32_a-charmax.o)
                0x000000000041c014                __mingw_pinit
 .CRT$XIZ       0x000000000041c018        0x4 C:/MinGW64/mingw64-6.3.0/bin/../lib/gcc/x86_64-w64-mingw32/6.3.0/../../../../x86_64-w64-mingw32/lib/../lib32/libmingw32.a(lib32_libmingw32_a-cinitexe.o)
                0x000000000041c018                __xi_z
                0x000000000041c01c                ___crt_xi_end__ = .
                0x000000000041c01c                ___crt_xl_start__ = .
 *(SORT(.CRT$XL*))
 .CRT$XLA       0x000000000041c01c        0x4 C:/MinGW64/mingw64-6.3.0/bin/../lib/gcc/x86_64-w64-mingw32/6.3.0/../../../../x86_64-w64-mingw32/lib/../lib32/libmingw32.a(lib32_libmingw32_a-tlssup.o)
                0x000000000041c01c                __xl_a
 .CRT$XLC       0x000000000041c020        0x4 C:/MinGW64/mingw64-6.3.0/bin/../lib/gcc/x86_64-w64-mingw32/6.3.0/../../../../x86_64-w64-mingw32/lib/../lib32/libmingw32.a(lib32_libmingw32_a-tlssup.o)
                0x000000000041c020                __xl_c
 .CRT$XLD       0x000000000041c024        0x4 C:/MinGW64/mingw64-6.3.0/bin/../lib/gcc/x86_64-w64-mingw32/6.3.0/../../../../x86_64-w64-mingw32/lib/../lib32/libmingw32.a(lib32_libmingw32_a-tlssup.o)
                0x000000000041c024                __xl_d
 .CRT$XLZ       0x000000000041c028        0x4 C:/MinGW64/mingw64-6.3.0/bin/../lib/gcc/x86_64-w64-mingw32/6.3.0/../../../../x86_64-w64-mingw32/lib/../lib32/libmingw32.a(lib32_libmingw32_a-tlssup.o)
                0x000000000041c028                __xl_z
                0x000000000041c02c                ___crt_xp_start__ = .
 *(SORT(.CRT$XP*))
                0x000000000041c02c                ___crt_xp_end__ = .
                0x000000000041c02c                ___crt_xt_start__ = .
 *(SORT(.CRT$XT*))
                0x000000000041c02c                ___crt_xt_end__ = .
 .CRT$XDA       0x000000000041c02c        0x4 C:/MinGW64/mingw64-6.3.0/bin/../lib/gcc/x86_64-w64-mingw32/6.3.0/../../../../x86_64-w64-mingw32/lib/../lib32/libmingw32.a(lib32_libmingw32_a-tlssup.o)
 .CRT$XDZ       0x000000000041c030        0x4 C:/MinGW64/mingw64-6.3.0/bin/../lib/gcc/x86_64-w64-mingw32/6.3.0/../../../../x86_64-w64-mingw32/lib/../lib32/libmingw32.a(lib32_libmingw32_a-tlssup.o)

.tls            0x000000000041d000      0x200
                0x000000000041d000                ___tls_start__ = .
 *(.tls$AAA)
 .tls$AAA       0x000000000041d000        0x4 C:/MinGW64/mingw64-6.3.0/bin/../lib/gcc/x86_64-w64-mingw32/6.3.0/../../../../x86_64-w64-mingw32/lib/../lib32/libmingw32.a(lib32_libmingw32_a-tlssup.o)
                0x000000000041d000                _tls_start
 *(.tls)
 .tls           0x000000000041d004       0x18 C:/MinGW64/mingw64-6.3.0/bin/../lib/gcc/x86_64-w64-mingw32/6.3.0/../../../../x86_64-w64-mingw32/lib/../lib32/libmingw32.a(lib32_libmingw32_a-tlssup.o)
                0x000000000041d004                _tls_used
 *(.tls$)
 *(SORT(.tls$*))
 .tls$ZZZ       0x000000000041d01c        0x4 C:/MinGW64/mingw64-6.3.0/bin/../lib/gcc/x86_64-w64-mingw32/6.3.0/../../../../x86_64-w64-mingw32/lib/../lib32/libmingw32.a(lib32_libmingw32_a-tlssup.o)
                0x000000000041d01c                _tls_end
 *(.tls$ZZZ)
                0x000000000041d020                ___tls_end__ = .

.endjunk        0x000000000041e000        0x0
                [!provide]                        PROVIDE (end, .)
                [!provide]                        PROVIDE (_end, .)
                0x000000000041e000                __end__ = .

.rsrc
 *(.rsrc)
 *(.rsrc$*)

.reloc
 *(.reloc)

.stab
 *(.stab)

.stabstr
 *(.stabstr)

.debug_aranges  0x000000000041e000      0x400
 *(.debug_aranges)
 .debug_aranges
                0x000000000041e000       0x20 OpenJADE\out\preamp1\x86\obj\app\Baf\Baf\OJSP.o
 .debug_aranges
                0x000000000041e020       0x20 OpenJADE\out\preamp1\x86\obj\app\Baf\Integration_Example.o
 .debug_aranges
                0x000000000041e040       0x20 OpenJADE\out\preamp1\x86\lib\Baf\Baf.lib(BAF.o)
 .debug_aranges
                0x000000000041e060       0x20 OpenJADE\out\preamp1\x86\lib\Baf\Baf.lib(Error.o)
 .debug_aranges
                0x000000000041e080       0x20 OpenJADE\out\preamp1\x86\lib\Baf\Baf.lib(Framework_Builder.o)
 .debug_aranges
                0x000000000041e0a0       0x20 OpenJADE\out\preamp1\x86\lib\Baf\Baf.lib(Heap.o)
 .debug_aranges
                0x000000000041e0c0       0x20 OpenJADE\out\preamp1\x86\lib\Baf\Baf.lib(JFramework.o)
 .debug_aranges
                0x000000000041e0e0       0x20 OpenJADE\out\preamp1\x86\lib\Baf\Baf.lib(JModule_Context.o)
 .debug_aranges
                0x000000000041e100       0x20 OpenJADE\out\preamp1\x86\lib\Baf\Baf.lib(Logger.o)
 .debug_aranges
                0x000000000041e120       0x20 OpenJADE\out\preamp1\x86\lib\Baf\Baf.lib(Module.o)
 .debug_aranges
                0x000000000041e140       0x20 OpenJADE\out\preamp1\x86\lib\Baf\Baf.lib(Port.o)
 .debug_aranges
                0x000000000041e160       0x20 OpenJADE\out\preamp1\x86\lib\Baf\Baf.lib(Ports.o)
 .debug_aranges
                0x000000000041e180       0x20 OpenJADE\out\preamp1\x86\lib\Baf\Baf.lib(Process.o)
 .debug_aranges
                0x000000000041e1a0       0x20 OpenJADE\out\preamp1\x86\lib\Baf\Baf.lib(Process_Context.o)
 .debug_aranges
                0x000000000041e1c0       0x20 OpenJADE\out\preamp1\x86\lib\Baf\Baf.lib(Audio_Graph.o)
 .debug_aranges
                0x000000000041e1e0       0x20 OpenJADE\out\preamp1\x86\lib\Baf\Baf.lib(BasicAudio_Target.o)
 .debug_aranges
                0x000000000041e200       0x18 OpenJADE\out\preamp1\x86\lib\Baf\Baf.lib(BasicAudio_Target_BasicAudio0_TOP.o)
 .debug_aranges
                0x000000000041e218       0x18 OpenJADE\out\preamp1\x86\lib\Baf\Baf.lib(BasicAudio_Target_data.o)
 .debug_aranges
                0x000000000041e230       0x18 OpenJADE\out\preamp1\x86\lib\Baf\Baf.lib(BasicAudio_Target_StructStaticInit.o)
 .debug_aranges
                0x000000000041e248       0x20 OpenJADE\out\preamp1\x86\lib\Baf\Baf.lib(BasicAudio_Target_TalariaAPI.o)
 .debug_aranges
                0x000000000041e268       0x20 OpenJADE\out\preamp1\x86\lib\Baf\Baf.lib(BasicAudio_Target_TOP_Access.o)
 .debug_aranges
                0x000000000041e288       0x20 OpenJADE\out\preamp1\x86\lib\Baf\Baf.lib(BasicAudio_Target_RTC_NTF.o)
 .debug_aranges
                0x000000000041e2a8       0x20 OpenJADE\out\preamp1\x86\lib\Baf\Baf.lib(BasicAudio_Target_RTC_REQ_RSP.o)
 .debug_aranges
                0x000000000041e2c8       0x20 OpenJADE\out\preamp1\x86\lib\Baf\Baf.lib(BasicAudio_Target_SCH_API.o)
 .debug_aranges
                0x000000000041e2e8       0x20 OpenJADE\out\preamp1\x86\lib\Platform\Baf\SIL.lib(oj_platform.o)
 .debug_aranges
                0x000000000041e308       0x20 C:/MinGW64/mingw64-6.3.0/bin/../lib/gcc/x86_64-w64-mingw32/6.3.0/32/libgcc.a(_chkstk_ms.o)
 .debug_aranges
                0x000000000041e328       0x18 C:/MinGW64/mingw64-6.3.0/bin/../lib/gcc/x86_64-w64-mingw32/6.3.0/32/libgcc.a(_ctors.o)

.zdebug_aranges
 *(.zdebug_aranges)

.debug_pubnames
 *(.debug_pubnames)

.zdebug_pubnames
 *(.zdebug_pubnames)

.debug_pubtypes
 *(.debug_pubtypes)

.zdebug_pubtypes
 *(.zdebug_pubtypes)

.debug_info     0x000000000041f000    0x18a00
 *(.debug_info .gnu.linkonce.wi.*)
 .debug_info    0x000000000041f000      0xd99 OpenJADE\out\preamp1\x86\obj\app\Baf\Baf\OJSP.o
 .debug_info    0x000000000041fd99      0x1e4 OpenJADE\out\preamp1\x86\obj\app\Baf\Integration_Example.o
 .debug_info    0x000000000041ff7d     0x1cf1 OpenJADE\out\preamp1\x86\lib\Baf\Baf.lib(BAF.o)
 .debug_info    0x0000000000421c6e      0x4f7 OpenJADE\out\preamp1\x86\lib\Baf\Baf.lib(Error.o)
 .debug_info    0x0000000000422165     0x1cbc OpenJADE\out\preamp1\x86\lib\Baf\Baf.lib(Framework_Builder.o)
 .debug_info    0x0000000000423e21      0x54f OpenJADE\out\preamp1\x86\lib\Baf\Baf.lib(Heap.o)
 .debug_info    0x0000000000424370     0x1bfc OpenJADE\out\preamp1\x86\lib\Baf\Baf.lib(JFramework.o)
 .debug_info    0x0000000000425f6c      0xd43 OpenJADE\out\preamp1\x86\lib\Baf\Baf.lib(JModule_Context.o)
 .debug_info    0x0000000000426caf      0x82d OpenJADE\out\preamp1\x86\lib\Baf\Baf.lib(Logger.o)
 .debug_info    0x00000000004274dc      0xebf OpenJADE\out\preamp1\x86\lib\Baf\Baf.lib(Module.o)
 .debug_info    0x000000000042839b      0x46f OpenJADE\out\preamp1\x86\lib\Baf\Baf.lib(Port.o)
 .debug_info    0x000000000042880a      0x45d OpenJADE\out\preamp1\x86\lib\Baf\Baf.lib(Ports.o)
 .debug_info    0x0000000000428c67      0xbd9 OpenJADE\out\preamp1\x86\lib\Baf\Baf.lib(Process.o)
 .debug_info    0x0000000000429840      0x438 OpenJADE\out\preamp1\x86\lib\Baf\Baf.lib(Process_Context.o)
 .debug_info    0x0000000000429c78     0x20b6 OpenJADE\out\preamp1\x86\lib\Baf\Baf.lib(Audio_Graph.o)
 .debug_info    0x000000000042bd2e     0x316b OpenJADE\out\preamp1\x86\lib\Baf\Baf.lib(BasicAudio_Target.o)
 .debug_info    0x000000000042ee99      0x557 OpenJADE\out\preamp1\x86\lib\Baf\Baf.lib(BasicAudio_Target_BasicAudio0_TOP.o)
 .debug_info    0x000000000042f3f0     0x13d0 OpenJADE\out\preamp1\x86\lib\Baf\Baf.lib(BasicAudio_Target_data.o)
 .debug_info    0x00000000004307c0      0x935 OpenJADE\out\preamp1\x86\lib\Baf\Baf.lib(BasicAudio_Target_StructStaticInit.o)
 .debug_info    0x00000000004310f5      0x334 OpenJADE\out\preamp1\x86\lib\Baf\Baf.lib(BasicAudio_Target_TalariaAPI.o)
 .debug_info    0x0000000000431429      0xcf3 OpenJADE\out\preamp1\x86\lib\Baf\Baf.lib(BasicAudio_Target_TOP_Access.o)
 .debug_info    0x000000000043211c     0x177d OpenJADE\out\preamp1\x86\lib\Baf\Baf.lib(BasicAudio_Target_RTC_NTF.o)
 .debug_info    0x0000000000433899      0x3c7 OpenJADE\out\preamp1\x86\lib\Baf\Baf.lib(BasicAudio_Target_RTC_REQ_RSP.o)
 .debug_info    0x0000000000433c60      0xa17 OpenJADE\out\preamp1\x86\lib\Baf\Baf.lib(BasicAudio_Target_SCH_API.o)
 .debug_info    0x0000000000434677     0x1380 OpenJADE\out\preamp1\x86\lib\Platform\Baf\SIL.lib(oj_platform.o)
 .debug_info    0x00000000004359f7       0xbc C:/MinGW64/mingw64-6.3.0/bin/../lib/gcc/x86_64-w64-mingw32/6.3.0/32/libgcc.a(_chkstk_ms.o)
 .debug_info    0x0000000000435ab3     0x1dc2 C:/MinGW64/mingw64-6.3.0/bin/../lib/gcc/x86_64-w64-mingw32/6.3.0/32/libgcc.a(_ctors.o)

.zdebug_info
 *(.zdebug_info .zdebug.gnu.linkonce.wi.*)

.debug_abbrev   0x0000000000438000     0x2600
 *(.debug_abbrev)
 .debug_abbrev  0x0000000000438000      0x228 OpenJADE\out\preamp1\x86\obj\app\Baf\Baf\OJSP.o
 .debug_abbrev  0x0000000000438228       0x76 OpenJADE\out\preamp1\x86\obj\app\Baf\Integration_Example.o
 .debug_abbrev  0x000000000043829e      0x2de OpenJADE\out\preamp1\x86\lib\Baf\Baf.lib(BAF.o)
 .debug_abbrev  0x000000000043857c       0xe1 OpenJADE\out\preamp1\x86\lib\Baf\Baf.lib(Error.o)
 .debug_abbrev  0x000000000043865d      0x257 OpenJADE\out\preamp1\x86\lib\Baf\Baf.lib(Framework_Builder.o)
 .debug_abbrev  0x00000000004388b4       0xec OpenJADE\out\preamp1\x86\lib\Baf\Baf.lib(Heap.o)
 .debug_abbrev  0x00000000004389a0      0x25e OpenJADE\out\preamp1\x86\lib\Baf\Baf.lib(JFramework.o)
 .debug_abbrev  0x0000000000438bfe      0x15e OpenJADE\out\preamp1\x86\lib\Baf\Baf.lib(JModule_Context.o)
 .debug_abbrev  0x0000000000438d5c      0x19e OpenJADE\out\preamp1\x86\lib\Baf\Baf.lib(Logger.o)
 .debug_abbrev  0x0000000000438efa      0x169 OpenJADE\out\preamp1\x86\lib\Baf\Baf.lib(Module.o)
 .debug_abbrev  0x0000000000439063       0xce OpenJADE\out\preamp1\x86\lib\Baf\Baf.lib(Port.o)
 .debug_abbrev  0x0000000000439131       0xa6 OpenJADE\out\preamp1\x86\lib\Baf\Baf.lib(Ports.o)
 .debug_abbrev  0x00000000004391d7      0x178 OpenJADE\out\preamp1\x86\lib\Baf\Baf.lib(Process.o)
 .debug_abbrev  0x000000000043934f       0xd4 OpenJADE\out\preamp1\x86\lib\Baf\Baf.lib(Process_Context.o)
 .debug_abbrev  0x0000000000439423      0x228 OpenJADE\out\preamp1\x86\lib\Baf\Baf.lib(Audio_Graph.o)
 .debug_abbrev  0x000000000043964b      0x26d OpenJADE\out\preamp1\x86\lib\Baf\Baf.lib(BasicAudio_Target.o)
 .debug_abbrev  0x00000000004398b8       0x85 OpenJADE\out\preamp1\x86\lib\Baf\Baf.lib(BasicAudio_Target_BasicAudio0_TOP.o)
 .debug_abbrev  0x000000000043993d       0xe3 OpenJADE\out\preamp1\x86\lib\Baf\Baf.lib(BasicAudio_Target_data.o)
 .debug_abbrev  0x0000000000439a20       0x92 OpenJADE\out\preamp1\x86\lib\Baf\Baf.lib(BasicAudio_Target_StructStaticInit.o)
 .debug_abbrev  0x0000000000439ab2       0xa1 OpenJADE\out\preamp1\x86\lib\Baf\Baf.lib(BasicAudio_Target_TalariaAPI.o)
 .debug_abbrev  0x0000000000439b53      0x18f OpenJADE\out\preamp1\x86\lib\Baf\Baf.lib(BasicAudio_Target_TOP_Access.o)
 .debug_abbrev  0x0000000000439ce2      0x142 OpenJADE\out\preamp1\x86\lib\Baf\Baf.lib(BasicAudio_Target_RTC_NTF.o)
 .debug_abbrev  0x0000000000439e24       0xb6 OpenJADE\out\preamp1\x86\lib\Baf\Baf.lib(BasicAudio_Target_RTC_REQ_RSP.o)
 .debug_abbrev  0x0000000000439eda      0x1ad OpenJADE\out\preamp1\x86\lib\Baf\Baf.lib(BasicAudio_Target_SCH_API.o)
 .debug_abbrev  0x000000000043a087      0x2b7 OpenJADE\out\preamp1\x86\lib\Platform\Baf\SIL.lib(oj_platform.o)
 .debug_abbrev  0x000000000043a33e       0x14 C:/MinGW64/mingw64-6.3.0/bin/../lib/gcc/x86_64-w64-mingw32/6.3.0/32/libgcc.a(_chkstk_ms.o)
 .debug_abbrev  0x000000000043a352      0x11b C:/MinGW64/mingw64-6.3.0/bin/../lib/gcc/x86_64-w64-mingw32/6.3.0/32/libgcc.a(_ctors.o)

.zdebug_abbrev
 *(.zdebug_abbrev)

.debug_line     0x000000000043b000     0x3e00
 *(.debug_line)
 .debug_line    0x000000000043b000      0x1bc OpenJADE\out\preamp1\x86\obj\app\Baf\Baf\OJSP.o
 .debug_line    0x000000000043b1bc       0x87 OpenJADE\out\preamp1\x86\obj\app\Baf\Integration_Example.o
 .debug_line    0x000000000043b243      0x4a4 OpenJADE\out\preamp1\x86\lib\Baf\Baf.lib(BAF.o)
 .debug_line    0x000000000043b6e7       0xb7 OpenJADE\out\preamp1\x86\lib\Baf\Baf.lib(Error.o)
 .debug_line    0x000000000043b79e      0x546 OpenJADE\out\preamp1\x86\lib\Baf\Baf.lib(Framework_Builder.o)
 .debug_line    0x000000000043bce4       0xd8 OpenJADE\out\preamp1\x86\lib\Baf\Baf.lib(Heap.o)
 .debug_line    0x000000000043bdbc      0x587 OpenJADE\out\preamp1\x86\lib\Baf\Baf.lib(JFramework.o)
 .debug_line    0x000000000043c343      0x266 OpenJADE\out\preamp1\x86\lib\Baf\Baf.lib(JModule_Context.o)
 .debug_line    0x000000000043c5a9      0x261 OpenJADE\out\preamp1\x86\lib\Baf\Baf.lib(Logger.o)
 .debug_line    0x000000000043c80a      0x23d OpenJADE\out\preamp1\x86\lib\Baf\Baf.lib(Module.o)
 .debug_line    0x000000000043ca47      0x10b OpenJADE\out\preamp1\x86\lib\Baf\Baf.lib(Port.o)
 .debug_line    0x000000000043cb52      0x12d OpenJADE\out\preamp1\x86\lib\Baf\Baf.lib(Ports.o)
 .debug_line    0x000000000043cc7f      0x25f OpenJADE\out\preamp1\x86\lib\Baf\Baf.lib(Process.o)
 .debug_line    0x000000000043cede       0xf3 OpenJADE\out\preamp1\x86\lib\Baf\Baf.lib(Process_Context.o)
 .debug_line    0x000000000043cfd1      0x455 OpenJADE\out\preamp1\x86\lib\Baf\Baf.lib(Audio_Graph.o)
 .debug_line    0x000000000043d426      0x984 OpenJADE\out\preamp1\x86\lib\Baf\Baf.lib(BasicAudio_Target.o)
 .debug_line    0x000000000043ddaa       0xac OpenJADE\out\preamp1\x86\lib\Baf\Baf.lib(BasicAudio_Target_BasicAudio0_TOP.o)
 .debug_line    0x000000000043de56      0x11f OpenJADE\out\preamp1\x86\lib\Baf\Baf.lib(BasicAudio_Target_data.o)
 .debug_line    0x000000000043df75       0xd7 OpenJADE\out\preamp1\x86\lib\Baf\Baf.lib(BasicAudio_Target_StructStaticInit.o)
 .debug_line    0x000000000043e04c      0x116 OpenJADE\out\preamp1\x86\lib\Baf\Baf.lib(BasicAudio_Target_TalariaAPI.o)
 .debug_line    0x000000000043e162      0x254 OpenJADE\out\preamp1\x86\lib\Baf\Baf.lib(BasicAudio_Target_TOP_Access.o)
 .debug_line    0x000000000043e3b6      0x1c1 OpenJADE\out\preamp1\x86\lib\Baf\Baf.lib(BasicAudio_Target_RTC_NTF.o)
 .debug_line    0x000000000043e577       0xf7 OpenJADE\out\preamp1\x86\lib\Baf\Baf.lib(BasicAudio_Target_RTC_REQ_RSP.o)
 .debug_line    0x000000000043e66e      0x1fa OpenJADE\out\preamp1\x86\lib\Baf\Baf.lib(BasicAudio_Target_SCH_API.o)
 .debug_line    0x000000000043e868      0x2ee OpenJADE\out\preamp1\x86\lib\Platform\Baf\SIL.lib(oj_platform.o)
 .debug_line    0x000000000043eb56       0x7a C:/MinGW64/mingw64-6.3.0/bin/../lib/gcc/x86_64-w64-mingw32/6.3.0/32/libgcc.a(_chkstk_ms.o)
 .debug_line    0x000000000043ebd0      0x1b9 C:/MinGW64/mingw64-6.3.0/bin/../lib/gcc/x86_64-w64-mingw32/6.3.0/32/libgcc.a(_ctors.o)

.zdebug_line
 *(.zdebug_line)

.debug_frame    0x000000000043f000     0x1a00
 *(.debug_frame*)
 .debug_frame   0x000000000043f000      0x1d4 OpenJADE\out\preamp1\x86\obj\app\Baf\Baf\OJSP.o
 .debug_frame   0x000000000043f1d4       0x34 OpenJADE\out\preamp1\x86\obj\app\Baf\Integration_Example.o
 .debug_frame   0x000000000043f208      0x1e0 OpenJADE\out\preamp1\x86\lib\Baf\Baf.lib(BAF.o)
 .debug_frame   0x000000000043f3e8       0x34 OpenJADE\out\preamp1\x86\lib\Baf\Baf.lib(Error.o)
 .debug_frame   0x000000000043f41c      0x134 OpenJADE\out\preamp1\x86\lib\Baf\Baf.lib(Framework_Builder.o)
 .debug_frame   0x000000000043f550       0x74 OpenJADE\out\preamp1\x86\lib\Baf\Baf.lib(Heap.o)
 .debug_frame   0x000000000043f5c4      0x188 OpenJADE\out\preamp1\x86\lib\Baf\Baf.lib(JFramework.o)
 .debug_frame   0x000000000043f74c       0x78 OpenJADE\out\preamp1\x86\lib\Baf\Baf.lib(JModule_Context.o)
 .debug_frame   0x000000000043f7c4      0x11c OpenJADE\out\preamp1\x86\lib\Baf\Baf.lib(Logger.o)
 .debug_frame   0x000000000043f8e0       0x94 OpenJADE\out\preamp1\x86\lib\Baf\Baf.lib(Module.o)
 .debug_frame   0x000000000043f974       0x74 OpenJADE\out\preamp1\x86\lib\Baf\Baf.lib(Port.o)
 .debug_frame   0x000000000043f9e8       0x34 OpenJADE\out\preamp1\x86\lib\Baf\Baf.lib(Ports.o)
 .debug_frame   0x000000000043fa1c       0x74 OpenJADE\out\preamp1\x86\lib\Baf\Baf.lib(Process.o)
 .debug_frame   0x000000000043fa90       0x54 OpenJADE\out\preamp1\x86\lib\Baf\Baf.lib(Process_Context.o)
 .debug_frame   0x000000000043fae4      0x1a0 OpenJADE\out\preamp1\x86\lib\Baf\Baf.lib(Audio_Graph.o)
 .debug_frame   0x000000000043fc84      0x5b4 OpenJADE\out\preamp1\x86\lib\Baf\Baf.lib(BasicAudio_Target.o)
 .debug_frame   0x0000000000440238       0x54 OpenJADE\out\preamp1\x86\lib\Baf\Baf.lib(BasicAudio_Target_TalariaAPI.o)
 .debug_frame   0x000000000044028c       0xb8 OpenJADE\out\preamp1\x86\lib\Baf\Baf.lib(BasicAudio_Target_TOP_Access.o)
 .debug_frame   0x0000000000440344       0x34 OpenJADE\out\preamp1\x86\lib\Baf\Baf.lib(BasicAudio_Target_RTC_NTF.o)
 .debug_frame   0x0000000000440378       0x34 OpenJADE\out\preamp1\x86\lib\Baf\Baf.lib(BasicAudio_Target_RTC_REQ_RSP.o)
 .debug_frame   0x00000000004403ac       0xf4 OpenJADE\out\preamp1\x86\lib\Baf\Baf.lib(BasicAudio_Target_SCH_API.o)
 .debug_frame   0x00000000004404a0      0x39c OpenJADE\out\preamp1\x86\lib\Platform\Baf\SIL.lib(oj_platform.o)
 .debug_frame   0x000000000044083c       0x38 C:/MinGW64/mingw64-6.3.0/bin/../lib/gcc/x86_64-w64-mingw32/6.3.0/32/libgcc.a(_chkstk_ms.o)

.zdebug_frame
 *(.zdebug_frame*)

.debug_str      0x0000000000441000     0x1200
 *(.debug_str)
 .debug_str     0x0000000000441000       0x7b OpenJADE\out\preamp1\x86\obj\app\Baf\Baf\OJSP.o
 .debug_str     0x000000000044107b        0x0 OpenJADE\out\preamp1\x86\obj\app\Baf\Integration_Example.o
 .debug_str     0x000000000044107b      0x2be OpenJADE\out\preamp1\x86\lib\Baf\Baf.lib(BAF.o)
 .debug_str     0x0000000000441339        0xa OpenJADE\out\preamp1\x86\lib\Baf\Baf.lib(Error.o)
 .debug_str     0x0000000000441343      0x231 OpenJADE\out\preamp1\x86\lib\Baf\Baf.lib(Framework_Builder.o)
 .debug_str     0x0000000000441574        0xa OpenJADE\out\preamp1\x86\lib\Baf\Baf.lib(Heap.o)
 .debug_str     0x000000000044157e      0x138 OpenJADE\out\preamp1\x86\lib\Baf\Baf.lib(JFramework.o)
 .debug_str     0x00000000004416b6       0xb5 OpenJADE\out\preamp1\x86\lib\Baf\Baf.lib(JModule_Context.o)
 .debug_str     0x000000000044176b       0x23 OpenJADE\out\preamp1\x86\lib\Baf\Baf.lib(Logger.o)
 .debug_str     0x000000000044178e       0xc6 OpenJADE\out\preamp1\x86\lib\Baf\Baf.lib(Module.o)
 .debug_str     0x0000000000441854       0x36 OpenJADE\out\preamp1\x86\lib\Baf\Baf.lib(Port.o)
 .debug_str     0x000000000044188a        0x0 OpenJADE\out\preamp1\x86\lib\Baf\Baf.lib(Ports.o)
 .debug_str     0x000000000044188a       0xa0 OpenJADE\out\preamp1\x86\lib\Baf\Baf.lib(Process.o)
 .debug_str     0x000000000044192a       0x4f OpenJADE\out\preamp1\x86\lib\Baf\Baf.lib(Process_Context.o)
 .debug_str     0x0000000000441979      0x232 OpenJADE\out\preamp1\x86\lib\Baf\Baf.lib(Audio_Graph.o)
 .debug_str     0x0000000000441bab      0x2ce OpenJADE\out\preamp1\x86\lib\Baf\Baf.lib(BasicAudio_Target.o)
 .debug_str     0x0000000000441e79        0x0 OpenJADE\out\preamp1\x86\lib\Baf\Baf.lib(BasicAudio_Target_BasicAudio0_TOP.o)
 .debug_str     0x0000000000441e79       0x91 OpenJADE\out\preamp1\x86\lib\Baf\Baf.lib(BasicAudio_Target_data.o)
 .debug_str     0x0000000000441f0a       0x5b OpenJADE\out\preamp1\x86\lib\Baf\Baf.lib(BasicAudio_Target_StructStaticInit.o)
 .debug_str     0x0000000000441f65        0x0 OpenJADE\out\preamp1\x86\lib\Baf\Baf.lib(BasicAudio_Target_TalariaAPI.o)
 .debug_str     0x0000000000441f65       0x53 OpenJADE\out\preamp1\x86\lib\Baf\Baf.lib(BasicAudio_Target_TOP_Access.o)
 .debug_str     0x0000000000441fb8       0x91 OpenJADE\out\preamp1\x86\lib\Baf\Baf.lib(BasicAudio_Target_RTC_NTF.o)
 .debug_str     0x0000000000442049        0x0 OpenJADE\out\preamp1\x86\lib\Baf\Baf.lib(BasicAudio_Target_RTC_REQ_RSP.o)
 .debug_str     0x0000000000442049       0xb1 OpenJADE\out\preamp1\x86\lib\Baf\Baf.lib(BasicAudio_Target_SCH_API.o)
 .debug_str     0x00000000004420fa       0x99 OpenJADE\out\preamp1\x86\lib\Platform\Baf\SIL.lib(oj_platform.o)
 .debug_str     0x0000000000442193        0x0 C:/MinGW64/mingw64-6.3.0/bin/../lib/gcc/x86_64-w64-mingw32/6.3.0/32/libgcc.a(_ctors.o)

.zdebug_str
 *(.zdebug_str)

.debug_loc
 *(.debug_loc)

.zdebug_loc
 *(.zdebug_loc)

.debug_macinfo
 *(.debug_macinfo)

.zdebug_macinfo
 *(.zdebug_macinfo)

.debug_weaknames
 *(.debug_weaknames)

.zdebug_weaknames
 *(.zdebug_weaknames)

.debug_funcnames
 *(.debug_funcnames)

.zdebug_funcnames
 *(.zdebug_funcnames)

.debug_typenames
 *(.debug_typenames)

.zdebug_typenames
 *(.zdebug_typenames)

.debug_varnames
 *(.debug_varnames)

.zdebug_varnames
 *(.zdebug_varnames)

.debug_macro
 *(.debug_macro)

.zdebug_macro
 *(.zdebug_macro)

.debug_ranges
 *(.debug_ranges)

.zdebug_ranges
 *(.zdebug_ranges)

.debug_types
 *(.debug_types .gnu.linkonce.wt.*)

.zdebug_types
 *(.zdebug_types .gnu.linkonce.wt.*)
OUTPUT(OpenJADE\out\preamp1\x86\exe\SIL_test_default\Baf.exe pei-i386)
